
Discarded input sections

 .text          0x0000000000000000        0x0 build/py/mpstate.o
 .data          0x0000000000000000        0x0 build/py/mpstate.o
 .bss           0x0000000000000000        0x0 build/py/mpstate.o
 .text          0x0000000000000000        0x0 build/py/nlr.o
 .data          0x0000000000000000        0x0 build/py/nlr.o
 .bss           0x0000000000000000        0x0 build/py/nlr.o
 .text          0x0000000000000000        0x0 build/py/nlrx86.o
 .data          0x0000000000000000        0x0 build/py/nlrx86.o
 .bss           0x0000000000000000        0x0 build/py/nlrx86.o
 .debug_info    0x0000000000000000       0x72 build/py/nlrx86.o
 .debug_abbrev  0x0000000000000000       0x26 build/py/nlrx86.o
 .debug_aranges
                0x0000000000000000       0x18 build/py/nlrx86.o
 .debug_line    0x0000000000000000       0x1d build/py/nlrx86.o
 .debug_str     0x0000000000000000      0x1a5 build/py/nlrx86.o
 .comment       0x0000000000000000       0x34 build/py/nlrx86.o
 .ARM.attributes
                0x0000000000000000       0x37 build/py/nlrx86.o
 .text          0x0000000000000000        0x0 build/py/nlrx64.o
 .data          0x0000000000000000        0x0 build/py/nlrx64.o
 .bss           0x0000000000000000        0x0 build/py/nlrx64.o
 .debug_info    0x0000000000000000       0x72 build/py/nlrx64.o
 .debug_abbrev  0x0000000000000000       0x26 build/py/nlrx64.o
 .debug_aranges
                0x0000000000000000       0x18 build/py/nlrx64.o
 .debug_line    0x0000000000000000       0x1d build/py/nlrx64.o
 .debug_str     0x0000000000000000      0x1a5 build/py/nlrx64.o
 .comment       0x0000000000000000       0x34 build/py/nlrx64.o
 .ARM.attributes
                0x0000000000000000       0x37 build/py/nlrx64.o
 .text          0x0000000000000000        0x0 build/py/nlrthumb.o
 .data          0x0000000000000000        0x0 build/py/nlrthumb.o
 .bss           0x0000000000000000        0x0 build/py/nlrthumb.o
 .text          0x0000000000000000        0x0 build/py/nlraarch64.o
 .data          0x0000000000000000        0x0 build/py/nlraarch64.o
 .bss           0x0000000000000000        0x0 build/py/nlraarch64.o
 .debug_info    0x0000000000000000       0x72 build/py/nlraarch64.o
 .debug_abbrev  0x0000000000000000       0x26 build/py/nlraarch64.o
 .debug_aranges
                0x0000000000000000       0x18 build/py/nlraarch64.o
 .debug_line    0x0000000000000000       0x1d build/py/nlraarch64.o
 .debug_str     0x0000000000000000      0x1a9 build/py/nlraarch64.o
 .comment       0x0000000000000000       0x34 build/py/nlraarch64.o
 .ARM.attributes
                0x0000000000000000       0x37 build/py/nlraarch64.o
 .text          0x0000000000000000        0x0 build/py/nlrpowerpc.o
 .data          0x0000000000000000        0x0 build/py/nlrpowerpc.o
 .bss           0x0000000000000000        0x0 build/py/nlrpowerpc.o
 .debug_info    0x0000000000000000       0x72 build/py/nlrpowerpc.o
 .debug_abbrev  0x0000000000000000       0x26 build/py/nlrpowerpc.o
 .debug_aranges
                0x0000000000000000       0x18 build/py/nlrpowerpc.o
 .debug_line    0x0000000000000000       0x1d build/py/nlrpowerpc.o
 .debug_str     0x0000000000000000      0x1a9 build/py/nlrpowerpc.o
 .comment       0x0000000000000000       0x34 build/py/nlrpowerpc.o
 .ARM.attributes
                0x0000000000000000       0x37 build/py/nlrpowerpc.o
 .text          0x0000000000000000        0x0 build/py/nlrxtensa.o
 .data          0x0000000000000000        0x0 build/py/nlrxtensa.o
 .bss           0x0000000000000000        0x0 build/py/nlrxtensa.o
 .debug_info    0x0000000000000000       0x72 build/py/nlrxtensa.o
 .debug_abbrev  0x0000000000000000       0x26 build/py/nlrxtensa.o
 .debug_aranges
                0x0000000000000000       0x18 build/py/nlrxtensa.o
 .debug_line    0x0000000000000000       0x1d build/py/nlrxtensa.o
 .debug_str     0x0000000000000000      0x1a8 build/py/nlrxtensa.o
 .comment       0x0000000000000000       0x34 build/py/nlrxtensa.o
 .ARM.attributes
                0x0000000000000000       0x37 build/py/nlrxtensa.o
 .text          0x0000000000000000        0x0 build/py/nlrsetjmp.o
 .data          0x0000000000000000        0x0 build/py/nlrsetjmp.o
 .bss           0x0000000000000000        0x0 build/py/nlrsetjmp.o
 .debug_info    0x0000000000000000       0x72 build/py/nlrsetjmp.o
 .debug_abbrev  0x0000000000000000       0x26 build/py/nlrsetjmp.o
 .debug_aranges
                0x0000000000000000       0x18 build/py/nlrsetjmp.o
 .debug_line    0x0000000000000000       0x1d build/py/nlrsetjmp.o
 .debug_str     0x0000000000000000      0x1a8 build/py/nlrsetjmp.o
 .comment       0x0000000000000000       0x34 build/py/nlrsetjmp.o
 .ARM.attributes
                0x0000000000000000       0x37 build/py/nlrsetjmp.o
 .text          0x0000000000000000        0x0 build/py/malloc.o
 .data          0x0000000000000000        0x0 build/py/malloc.o
 .bss           0x0000000000000000        0x0 build/py/malloc.o
 .text          0x0000000000000000        0x0 build/py/gc.o
 .data          0x0000000000000000        0x0 build/py/gc.o
 .bss           0x0000000000000000        0x0 build/py/gc.o
 .text.gc_sweep_all
                0x0000000000000000       0x18 build/py/gc.o
 .text.gc_info  0x0000000000000000       0xc0 build/py/gc.o
 .text.gc_nbytes
                0x0000000000000000       0x60 build/py/gc.o
 .rodata.gc_dump_info.str1.1
                0x0000000000000000       0x68 build/py/gc.o
 .text.gc_dump_info
                0x0000000000000000       0x40 build/py/gc.o
 .rodata.gc_dump_alloc_table.str1.1
                0x0000000000000000       0x44 build/py/gc.o
 .text.gc_dump_alloc_table
                0x0000000000000000      0x144 build/py/gc.o
 .text          0x0000000000000000        0x0 build/py/pystack.o
 .data          0x0000000000000000        0x0 build/py/pystack.o
 .bss           0x0000000000000000        0x0 build/py/pystack.o
 .debug_info    0x0000000000000000       0x72 build/py/pystack.o
 .debug_abbrev  0x0000000000000000       0x26 build/py/pystack.o
 .debug_aranges
                0x0000000000000000       0x18 build/py/pystack.o
 .debug_line    0x0000000000000000       0x1d build/py/pystack.o
 .debug_str     0x0000000000000000      0x1a2 build/py/pystack.o
 .comment       0x0000000000000000       0x34 build/py/pystack.o
 .ARM.attributes
                0x0000000000000000       0x37 build/py/pystack.o
 .text          0x0000000000000000        0x0 build/py/qstr.o
 .data          0x0000000000000000        0x0 build/py/qstr.o
 .bss           0x0000000000000000        0x0 build/py/qstr.o
 .text.qstr_from_str
                0x0000000000000000       0x14 build/py/qstr.o
 .text.qstr_pool_info
                0x0000000000000000       0x74 build/py/qstr.o
 .text          0x0000000000000000        0x0 build/py/vstr.o
 .data          0x0000000000000000        0x0 build/py/vstr.o
 .bss           0x0000000000000000        0x0 build/py/vstr.o
 .text.vstr_new
                0x0000000000000000       0x16 build/py/vstr.o
 .text.vstr_free
                0x0000000000000000       0x1c build/py/vstr.o
 .text.vstr_hint_size
                0x0000000000000000        0x4 build/py/vstr.o
 .text.vstr_cut_head_bytes
                0x0000000000000000        0x8 build/py/vstr.o
 .text.vstr_vprintf
                0x0000000000000000       0x18 build/py/vstr.o
 .text.vstr_printf
                0x0000000000000000       0x1a build/py/vstr.o
 .text          0x0000000000000000        0x0 build/py/mpprint.o
 .data          0x0000000000000000        0x0 build/py/mpprint.o
 .bss           0x0000000000000000        0x0 build/py/mpprint.o
 .text          0x0000000000000000        0x0 build/py/unicode.o
 .data          0x0000000000000000        0x0 build/py/unicode.o
 .bss           0x0000000000000000        0x0 build/py/unicode.o
 .text.unichar_isalnum
                0x0000000000000000       0x1c build/py/unicode.o
 .text          0x0000000000000000        0x0 build/py/mpz.o
 .data          0x0000000000000000        0x0 build/py/mpz.o
 .bss           0x0000000000000000        0x0 build/py/mpz.o
 .debug_info    0x0000000000000000       0x72 build/py/mpz.o
 .debug_abbrev  0x0000000000000000       0x26 build/py/mpz.o
 .debug_aranges
                0x0000000000000000       0x18 build/py/mpz.o
 .debug_line    0x0000000000000000       0x1d build/py/mpz.o
 .debug_str     0x0000000000000000      0x19e build/py/mpz.o
 .comment       0x0000000000000000       0x34 build/py/mpz.o
 .ARM.attributes
                0x0000000000000000       0x37 build/py/mpz.o
 .text          0x0000000000000000        0x0 build/py/reader.o
 .data          0x0000000000000000        0x0 build/py/reader.o
 .bss           0x0000000000000000        0x0 build/py/reader.o
 .text          0x0000000000000000        0x0 build/py/lexer.o
 .data          0x0000000000000000        0x0 build/py/lexer.o
 .bss           0x0000000000000000        0x0 build/py/lexer.o
 .text          0x0000000000000000        0x0 build/py/parse.o
 .data          0x0000000000000000        0x0 build/py/parse.o
 .bss           0x0000000000000000        0x0 build/py/parse.o
 .text.mp_parse_node_get_int_maybe
                0x0000000000000000       0x44 build/py/parse.o
 .text          0x0000000000000000        0x0 build/py/scope.o
 .data          0x0000000000000000        0x0 build/py/scope.o
 .bss           0x0000000000000000        0x0 build/py/scope.o
 .text          0x0000000000000000        0x0 build/py/compile.o
 .data          0x0000000000000000        0x0 build/py/compile.o
 .bss           0x0000000000000000        0x0 build/py/compile.o
 .text          0x0000000000000000        0x0 build/py/emitcommon.o
 .data          0x0000000000000000        0x0 build/py/emitcommon.o
 .bss           0x0000000000000000        0x0 build/py/emitcommon.o
 .text          0x0000000000000000        0x0 build/py/emitbc.o
 .data          0x0000000000000000        0x0 build/py/emitbc.o
 .bss           0x0000000000000000        0x0 build/py/emitbc.o
 .text          0x0000000000000000        0x0 build/py/asmbase.o
 .data          0x0000000000000000        0x0 build/py/asmbase.o
 .bss           0x0000000000000000        0x0 build/py/asmbase.o
 .debug_info    0x0000000000000000       0x72 build/py/asmbase.o
 .debug_abbrev  0x0000000000000000       0x26 build/py/asmbase.o
 .debug_aranges
                0x0000000000000000       0x18 build/py/asmbase.o
 .debug_line    0x0000000000000000       0x1d build/py/asmbase.o
 .debug_str     0x0000000000000000      0x1a2 build/py/asmbase.o
 .comment       0x0000000000000000       0x34 build/py/asmbase.o
 .ARM.attributes
                0x0000000000000000       0x37 build/py/asmbase.o
 .text          0x0000000000000000        0x0 build/py/asmx64.o
 .data          0x0000000000000000        0x0 build/py/asmx64.o
 .bss           0x0000000000000000        0x0 build/py/asmx64.o
 .debug_info    0x0000000000000000       0x6b build/py/asmx64.o
 .debug_abbrev  0x0000000000000000       0x26 build/py/asmx64.o
 .debug_aranges
                0x0000000000000000       0x18 build/py/asmx64.o
 .debug_line    0x0000000000000000       0x1d build/py/asmx64.o
 .debug_str     0x0000000000000000      0x19b build/py/asmx64.o
 .comment       0x0000000000000000       0x34 build/py/asmx64.o
 .ARM.attributes
                0x0000000000000000       0x37 build/py/asmx64.o
 .text          0x0000000000000000        0x0 build/py/emitnx64.o
 .data          0x0000000000000000        0x0 build/py/emitnx64.o
 .bss           0x0000000000000000        0x0 build/py/emitnx64.o
 .debug_info    0x0000000000000000       0x6b build/py/emitnx64.o
 .debug_abbrev  0x0000000000000000       0x26 build/py/emitnx64.o
 .debug_aranges
                0x0000000000000000       0x18 build/py/emitnx64.o
 .debug_line    0x0000000000000000       0x1d build/py/emitnx64.o
 .debug_str     0x0000000000000000      0x19d build/py/emitnx64.o
 .comment       0x0000000000000000       0x34 build/py/emitnx64.o
 .ARM.attributes
                0x0000000000000000       0x37 build/py/emitnx64.o
 .text          0x0000000000000000        0x0 build/py/asmx86.o
 .data          0x0000000000000000        0x0 build/py/asmx86.o
 .bss           0x0000000000000000        0x0 build/py/asmx86.o
 .debug_info    0x0000000000000000       0x6b build/py/asmx86.o
 .debug_abbrev  0x0000000000000000       0x26 build/py/asmx86.o
 .debug_aranges
                0x0000000000000000       0x18 build/py/asmx86.o
 .debug_line    0x0000000000000000       0x1d build/py/asmx86.o
 .debug_str     0x0000000000000000      0x19b build/py/asmx86.o
 .comment       0x0000000000000000       0x34 build/py/asmx86.o
 .ARM.attributes
                0x0000000000000000       0x37 build/py/asmx86.o
 .text          0x0000000000000000        0x0 build/py/emitnx86.o
 .data          0x0000000000000000        0x0 build/py/emitnx86.o
 .bss           0x0000000000000000        0x0 build/py/emitnx86.o
 .debug_info    0x0000000000000000       0x80 build/py/emitnx86.o
 .debug_abbrev  0x0000000000000000       0x26 build/py/emitnx86.o
 .debug_aranges
                0x0000000000000000       0x18 build/py/emitnx86.o
 .debug_line    0x0000000000000000       0x1d build/py/emitnx86.o
 .debug_str     0x0000000000000000      0x1b0 build/py/emitnx86.o
 .comment       0x0000000000000000       0x34 build/py/emitnx86.o
 .ARM.attributes
                0x0000000000000000       0x37 build/py/emitnx86.o
 .text          0x0000000000000000        0x0 build/py/asmthumb.o
 .data          0x0000000000000000        0x0 build/py/asmthumb.o
 .bss           0x0000000000000000        0x0 build/py/asmthumb.o
 .debug_info    0x0000000000000000       0x6b build/py/asmthumb.o
 .debug_abbrev  0x0000000000000000       0x26 build/py/asmthumb.o
 .debug_aranges
                0x0000000000000000       0x18 build/py/asmthumb.o
 .debug_line    0x0000000000000000       0x1d build/py/asmthumb.o
 .debug_str     0x0000000000000000      0x19d build/py/asmthumb.o
 .comment       0x0000000000000000       0x34 build/py/asmthumb.o
 .ARM.attributes
                0x0000000000000000       0x37 build/py/asmthumb.o
 .text          0x0000000000000000        0x0 build/py/emitnthumb.o
 .data          0x0000000000000000        0x0 build/py/emitnthumb.o
 .bss           0x0000000000000000        0x0 build/py/emitnthumb.o
 .debug_info    0x0000000000000000       0x6b build/py/emitnthumb.o
 .debug_abbrev  0x0000000000000000       0x26 build/py/emitnthumb.o
 .debug_aranges
                0x0000000000000000       0x18 build/py/emitnthumb.o
 .debug_line    0x0000000000000000       0x1d build/py/emitnthumb.o
 .debug_str     0x0000000000000000      0x19f build/py/emitnthumb.o
 .comment       0x0000000000000000       0x34 build/py/emitnthumb.o
 .ARM.attributes
                0x0000000000000000       0x37 build/py/emitnthumb.o
 .text          0x0000000000000000        0x0 build/py/emitinlinethumb.o
 .data          0x0000000000000000        0x0 build/py/emitinlinethumb.o
 .bss           0x0000000000000000        0x0 build/py/emitinlinethumb.o
 .debug_info    0x0000000000000000       0x72 build/py/emitinlinethumb.o
 .debug_abbrev  0x0000000000000000       0x26 build/py/emitinlinethumb.o
 .debug_aranges
                0x0000000000000000       0x18 build/py/emitinlinethumb.o
 .debug_line    0x0000000000000000       0x1d build/py/emitinlinethumb.o
 .debug_str     0x0000000000000000      0x1aa build/py/emitinlinethumb.o
 .comment       0x0000000000000000       0x34 build/py/emitinlinethumb.o
 .ARM.attributes
                0x0000000000000000       0x37 build/py/emitinlinethumb.o
 .text          0x0000000000000000        0x0 build/py/asmarm.o
 .data          0x0000000000000000        0x0 build/py/asmarm.o
 .bss           0x0000000000000000        0x0 build/py/asmarm.o
 .debug_info    0x0000000000000000       0x6b build/py/asmarm.o
 .debug_abbrev  0x0000000000000000       0x26 build/py/asmarm.o
 .debug_aranges
                0x0000000000000000       0x18 build/py/asmarm.o
 .debug_line    0x0000000000000000       0x1d build/py/asmarm.o
 .debug_str     0x0000000000000000      0x19b build/py/asmarm.o
 .comment       0x0000000000000000       0x34 build/py/asmarm.o
 .ARM.attributes
                0x0000000000000000       0x37 build/py/asmarm.o
 .text          0x0000000000000000        0x0 build/py/emitnarm.o
 .data          0x0000000000000000        0x0 build/py/emitnarm.o
 .bss           0x0000000000000000        0x0 build/py/emitnarm.o
 .debug_info    0x0000000000000000       0x6b build/py/emitnarm.o
 .debug_abbrev  0x0000000000000000       0x26 build/py/emitnarm.o
 .debug_aranges
                0x0000000000000000       0x18 build/py/emitnarm.o
 .debug_line    0x0000000000000000       0x1d build/py/emitnarm.o
 .debug_str     0x0000000000000000      0x19d build/py/emitnarm.o
 .comment       0x0000000000000000       0x34 build/py/emitnarm.o
 .ARM.attributes
                0x0000000000000000       0x37 build/py/emitnarm.o
 .text          0x0000000000000000        0x0 build/py/asmxtensa.o
 .data          0x0000000000000000        0x0 build/py/asmxtensa.o
 .bss           0x0000000000000000        0x0 build/py/asmxtensa.o
 .debug_info    0x0000000000000000       0x72 build/py/asmxtensa.o
 .debug_abbrev  0x0000000000000000       0x26 build/py/asmxtensa.o
 .debug_aranges
                0x0000000000000000       0x18 build/py/asmxtensa.o
 .debug_line    0x0000000000000000       0x1d build/py/asmxtensa.o
 .debug_str     0x0000000000000000      0x1a4 build/py/asmxtensa.o
 .comment       0x0000000000000000       0x34 build/py/asmxtensa.o
 .ARM.attributes
                0x0000000000000000       0x37 build/py/asmxtensa.o
 .text          0x0000000000000000        0x0 build/py/emitnxtensa.o
 .data          0x0000000000000000        0x0 build/py/emitnxtensa.o
 .bss           0x0000000000000000        0x0 build/py/emitnxtensa.o
 .debug_info    0x0000000000000000       0x6b build/py/emitnxtensa.o
 .debug_abbrev  0x0000000000000000       0x26 build/py/emitnxtensa.o
 .debug_aranges
                0x0000000000000000       0x18 build/py/emitnxtensa.o
 .debug_line    0x0000000000000000       0x1d build/py/emitnxtensa.o
 .debug_str     0x0000000000000000      0x1a0 build/py/emitnxtensa.o
 .comment       0x0000000000000000       0x34 build/py/emitnxtensa.o
 .ARM.attributes
                0x0000000000000000       0x37 build/py/emitnxtensa.o
 .text          0x0000000000000000        0x0 build/py/emitinlinextensa.o
 .data          0x0000000000000000        0x0 build/py/emitinlinextensa.o
 .bss           0x0000000000000000        0x0 build/py/emitinlinextensa.o
 .debug_info    0x0000000000000000       0x72 build/py/emitinlinextensa.o
 .debug_abbrev  0x0000000000000000       0x26 build/py/emitinlinextensa.o
 .debug_aranges
                0x0000000000000000       0x18 build/py/emitinlinextensa.o
 .debug_line    0x0000000000000000       0x1d build/py/emitinlinextensa.o
 .debug_str     0x0000000000000000      0x1ab build/py/emitinlinextensa.o
 .comment       0x0000000000000000       0x34 build/py/emitinlinextensa.o
 .ARM.attributes
                0x0000000000000000       0x37 build/py/emitinlinextensa.o
 .text          0x0000000000000000        0x0 build/py/emitnxtensawin.o
 .data          0x0000000000000000        0x0 build/py/emitnxtensawin.o
 .bss           0x0000000000000000        0x0 build/py/emitnxtensawin.o
 .debug_info    0x0000000000000000       0x6b build/py/emitnxtensawin.o
 .debug_abbrev  0x0000000000000000       0x26 build/py/emitnxtensawin.o
 .debug_aranges
                0x0000000000000000       0x18 build/py/emitnxtensawin.o
 .debug_line    0x0000000000000000       0x1d build/py/emitnxtensawin.o
 .debug_str     0x0000000000000000      0x1a3 build/py/emitnxtensawin.o
 .comment       0x0000000000000000       0x34 build/py/emitnxtensawin.o
 .ARM.attributes
                0x0000000000000000       0x37 build/py/emitnxtensawin.o
 .text          0x0000000000000000        0x0 build/py/formatfloat.o
 .data          0x0000000000000000        0x0 build/py/formatfloat.o
 .bss           0x0000000000000000        0x0 build/py/formatfloat.o
 .debug_info    0x0000000000000000       0x72 build/py/formatfloat.o
 .debug_abbrev  0x0000000000000000       0x26 build/py/formatfloat.o
 .debug_aranges
                0x0000000000000000       0x18 build/py/formatfloat.o
 .debug_line    0x0000000000000000       0x1d build/py/formatfloat.o
 .debug_str     0x0000000000000000      0x1a6 build/py/formatfloat.o
 .comment       0x0000000000000000       0x34 build/py/formatfloat.o
 .ARM.attributes
                0x0000000000000000       0x37 build/py/formatfloat.o
 .text          0x0000000000000000        0x0 build/py/parsenumbase.o
 .data          0x0000000000000000        0x0 build/py/parsenumbase.o
 .bss           0x0000000000000000        0x0 build/py/parsenumbase.o
 .text          0x0000000000000000        0x0 build/py/parsenum.o
 .data          0x0000000000000000        0x0 build/py/parsenum.o
 .bss           0x0000000000000000        0x0 build/py/parsenum.o
 .text          0x0000000000000000        0x0 build/py/emitglue.o
 .data          0x0000000000000000        0x0 build/py/emitglue.o
 .bss           0x0000000000000000        0x0 build/py/emitglue.o
 .text          0x0000000000000000        0x0 build/py/persistentcode.o
 .data          0x0000000000000000        0x0 build/py/persistentcode.o
 .bss           0x0000000000000000        0x0 build/py/persistentcode.o
 .debug_info    0x0000000000000000       0x80 build/py/persistentcode.o
 .debug_abbrev  0x0000000000000000       0x26 build/py/persistentcode.o
 .debug_aranges
                0x0000000000000000       0x18 build/py/persistentcode.o
 .debug_line    0x0000000000000000       0x1d build/py/persistentcode.o
 .debug_str     0x0000000000000000      0x1b6 build/py/persistentcode.o
 .comment       0x0000000000000000       0x34 build/py/persistentcode.o
 .ARM.attributes
                0x0000000000000000       0x37 build/py/persistentcode.o
 .text          0x0000000000000000        0x0 build/py/runtime.o
 .data          0x0000000000000000        0x0 build/py/runtime.o
 .bss           0x0000000000000000        0x0 build/py/runtime.o
 .text.mp_call_function_2
                0x0000000000000000       0x16 build/py/runtime.o
 .rodata.mp_raise_OSError_with_filename.str1.1
                0x0000000000000000        0xe build/py/runtime.o
 .text.mp_raise_OSError_with_filename
                0x0000000000000000       0x40 build/py/runtime.o
 .text          0x0000000000000000        0x0 build/py/runtime_utils.o
 .data          0x0000000000000000        0x0 build/py/runtime_utils.o
 .bss           0x0000000000000000        0x0 build/py/runtime_utils.o
 .text.mp_call_function_1_protected
                0x0000000000000000       0x34 build/py/runtime_utils.o
 .text.mp_call_function_2_protected
                0x0000000000000000       0x38 build/py/runtime_utils.o
 .debug_info    0x0000000000000000      0x321 build/py/runtime_utils.o
 .debug_abbrev  0x0000000000000000      0x167 build/py/runtime_utils.o
 .debug_loc     0x0000000000000000      0x148 build/py/runtime_utils.o
 .debug_aranges
                0x0000000000000000       0x28 build/py/runtime_utils.o
 .debug_ranges  0x0000000000000000       0x18 build/py/runtime_utils.o
 .debug_line    0x0000000000000000      0x11f build/py/runtime_utils.o
 .debug_str     0x0000000000000000      0x2b6 build/py/runtime_utils.o
 .comment       0x0000000000000000       0x34 build/py/runtime_utils.o
 .debug_frame   0x0000000000000000       0x58 build/py/runtime_utils.o
 .ARM.attributes
                0x0000000000000000       0x2e build/py/runtime_utils.o
 .text          0x0000000000000000        0x0 build/py/scheduler.o
 .data          0x0000000000000000        0x0 build/py/scheduler.o
 .bss           0x0000000000000000        0x0 build/py/scheduler.o
 .text.mp_sched_exception
                0x0000000000000000        0xc build/py/scheduler.o
 .text          0x0000000000000000        0x0 build/py/nativeglue.o
 .data          0x0000000000000000        0x0 build/py/nativeglue.o
 .bss           0x0000000000000000        0x0 build/py/nativeglue.o
 .debug_info    0x0000000000000000       0x80 build/py/nativeglue.o
 .debug_abbrev  0x0000000000000000       0x26 build/py/nativeglue.o
 .debug_aranges
                0x0000000000000000       0x18 build/py/nativeglue.o
 .debug_line    0x0000000000000000       0x1d build/py/nativeglue.o
 .debug_str     0x0000000000000000      0x1b2 build/py/nativeglue.o
 .comment       0x0000000000000000       0x34 build/py/nativeglue.o
 .ARM.attributes
                0x0000000000000000       0x37 build/py/nativeglue.o
 .text          0x0000000000000000        0x0 build/py/pairheap.o
 .data          0x0000000000000000        0x0 build/py/pairheap.o
 .bss           0x0000000000000000        0x0 build/py/pairheap.o
 .text.mp_pairheap_meld
                0x0000000000000000       0x44 build/py/pairheap.o
 .text.mp_pairheap_pairing
                0x0000000000000000       0x42 build/py/pairheap.o
 .text.mp_pairheap_delete
                0x0000000000000000       0x88 build/py/pairheap.o
 .debug_info    0x0000000000000000      0x557 build/py/pairheap.o
 .debug_abbrev  0x0000000000000000      0x252 build/py/pairheap.o
 .debug_loc     0x0000000000000000      0x4bf build/py/pairheap.o
 .debug_aranges
                0x0000000000000000       0x30 build/py/pairheap.o
 .debug_ranges  0x0000000000000000       0x70 build/py/pairheap.o
 .debug_line    0x0000000000000000      0x2b7 build/py/pairheap.o
 .debug_str     0x0000000000000000      0x38b build/py/pairheap.o
 .comment       0x0000000000000000       0x34 build/py/pairheap.o
 .debug_frame   0x0000000000000000       0x78 build/py/pairheap.o
 .ARM.attributes
                0x0000000000000000       0x2e build/py/pairheap.o
 .text          0x0000000000000000        0x0 build/py/ringbuf.o
 .data          0x0000000000000000        0x0 build/py/ringbuf.o
 .bss           0x0000000000000000        0x0 build/py/ringbuf.o
 .text.ringbuf_peek16
                0x0000000000000000       0x2a build/py/ringbuf.o
 .text.ringbuf_get16
                0x0000000000000000       0x20 build/py/ringbuf.o
 .text.ringbuf_put16
                0x0000000000000000       0x36 build/py/ringbuf.o
 .debug_info    0x0000000000000000      0x1d7 build/py/ringbuf.o
 .debug_abbrev  0x0000000000000000      0x113 build/py/ringbuf.o
 .debug_loc     0x0000000000000000       0xfa build/py/ringbuf.o
 .debug_aranges
                0x0000000000000000       0x30 build/py/ringbuf.o
 .debug_ranges  0x0000000000000000       0x20 build/py/ringbuf.o
 .debug_line    0x0000000000000000      0x187 build/py/ringbuf.o
 .debug_str     0x0000000000000000      0x215 build/py/ringbuf.o
 .comment       0x0000000000000000       0x34 build/py/ringbuf.o
 .debug_frame   0x0000000000000000       0x5c build/py/ringbuf.o
 .ARM.attributes
                0x0000000000000000       0x2e build/py/ringbuf.o
 .text          0x0000000000000000        0x0 build/py/stackctrl.o
 .data          0x0000000000000000        0x0 build/py/stackctrl.o
 .bss           0x0000000000000000        0x0 build/py/stackctrl.o
 .text.mp_stack_ctrl_init
                0x0000000000000000       0x10 build/py/stackctrl.o
 .text.mp_stack_set_top
                0x0000000000000000        0xc build/py/stackctrl.o
 .text.mp_stack_usage
                0x0000000000000000       0x14 build/py/stackctrl.o
 .debug_info    0x0000000000000000      0x793 build/py/stackctrl.o
 .debug_abbrev  0x0000000000000000      0x1d4 build/py/stackctrl.o
 .debug_aranges
                0x0000000000000000       0x30 build/py/stackctrl.o
 .debug_ranges  0x0000000000000000       0x20 build/py/stackctrl.o
 .debug_line    0x0000000000000000      0x157 build/py/stackctrl.o
 .debug_str     0x0000000000000000      0x724 build/py/stackctrl.o
 .comment       0x0000000000000000       0x34 build/py/stackctrl.o
 .debug_frame   0x0000000000000000       0x50 build/py/stackctrl.o
 .ARM.attributes
                0x0000000000000000       0x2e build/py/stackctrl.o
 .text          0x0000000000000000        0x0 build/py/argcheck.o
 .data          0x0000000000000000        0x0 build/py/argcheck.o
 .bss           0x0000000000000000        0x0 build/py/argcheck.o
 .text.mp_arg_parse_all_kw_array
                0x0000000000000000       0x2c build/py/argcheck.o
 .text          0x0000000000000000        0x0 build/py/warning.o
 .data          0x0000000000000000        0x0 build/py/warning.o
 .bss           0x0000000000000000        0x0 build/py/warning.o
 .debug_info    0x0000000000000000       0x72 build/py/warning.o
 .debug_abbrev  0x0000000000000000       0x26 build/py/warning.o
 .debug_aranges
                0x0000000000000000       0x18 build/py/warning.o
 .debug_line    0x0000000000000000       0x1d build/py/warning.o
 .debug_str     0x0000000000000000      0x1a2 build/py/warning.o
 .comment       0x0000000000000000       0x34 build/py/warning.o
 .ARM.attributes
                0x0000000000000000       0x37 build/py/warning.o
 .text          0x0000000000000000        0x0 build/py/profile.o
 .data          0x0000000000000000        0x0 build/py/profile.o
 .bss           0x0000000000000000        0x0 build/py/profile.o
 .debug_info    0x0000000000000000       0x72 build/py/profile.o
 .debug_abbrev  0x0000000000000000       0x26 build/py/profile.o
 .debug_aranges
                0x0000000000000000       0x18 build/py/profile.o
 .debug_line    0x0000000000000000       0x1d build/py/profile.o
 .debug_str     0x0000000000000000      0x1a2 build/py/profile.o
 .comment       0x0000000000000000       0x34 build/py/profile.o
 .ARM.attributes
                0x0000000000000000       0x37 build/py/profile.o
 .text          0x0000000000000000        0x0 build/py/map.o
 .data          0x0000000000000000        0x0 build/py/map.o
 .bss           0x0000000000000000        0x0 build/py/map.o
 .text.mp_map_deinit
                0x0000000000000000       0x1e build/py/map.o
 .text          0x0000000000000000        0x0 build/py/obj.o
 .data          0x0000000000000000        0x0 build/py/obj.o
 .bss           0x0000000000000000        0x0 build/py/obj.o
 .text.mp_obj_print
                0x0000000000000000       0x10 build/py/obj.o
 .rodata.mp_obj_get_array_fixed_n.str1.1
                0x0000000000000000        0x6 build/py/obj.o
 .text.mp_obj_get_array_fixed_n
                0x0000000000000000       0x20 build/py/obj.o
 .text          0x0000000000000000        0x0 build/py/objarray.o
 .data          0x0000000000000000        0x0 build/py/objarray.o
 .bss           0x0000000000000000        0x0 build/py/objarray.o
 .debug_info    0x0000000000000000       0x72 build/py/objarray.o
 .debug_abbrev  0x0000000000000000       0x26 build/py/objarray.o
 .debug_aranges
                0x0000000000000000       0x18 build/py/objarray.o
 .debug_line    0x0000000000000000       0x1d build/py/objarray.o
 .debug_str     0x0000000000000000      0x1a3 build/py/objarray.o
 .comment       0x0000000000000000       0x34 build/py/objarray.o
 .ARM.attributes
                0x0000000000000000       0x37 build/py/objarray.o
 .text          0x0000000000000000        0x0 build/py/objattrtuple.o
 .data          0x0000000000000000        0x0 build/py/objattrtuple.o
 .bss           0x0000000000000000        0x0 build/py/objattrtuple.o
 .debug_info    0x0000000000000000       0x72 build/py/objattrtuple.o
 .debug_abbrev  0x0000000000000000       0x26 build/py/objattrtuple.o
 .debug_aranges
                0x0000000000000000       0x18 build/py/objattrtuple.o
 .debug_line    0x0000000000000000       0x1d build/py/objattrtuple.o
 .debug_str     0x0000000000000000      0x1a7 build/py/objattrtuple.o
 .comment       0x0000000000000000       0x34 build/py/objattrtuple.o
 .ARM.attributes
                0x0000000000000000       0x37 build/py/objattrtuple.o
 .text          0x0000000000000000        0x0 build/py/objbool.o
 .data          0x0000000000000000        0x0 build/py/objbool.o
 .bss           0x0000000000000000        0x0 build/py/objbool.o
 .text          0x0000000000000000        0x0 build/py/objboundmeth.o
 .data          0x0000000000000000        0x0 build/py/objboundmeth.o
 .bss           0x0000000000000000        0x0 build/py/objboundmeth.o
 .text          0x0000000000000000        0x0 build/py/objcell.o
 .data          0x0000000000000000        0x0 build/py/objcell.o
 .bss           0x0000000000000000        0x0 build/py/objcell.o
 .text          0x0000000000000000        0x0 build/py/objclosure.o
 .data          0x0000000000000000        0x0 build/py/objclosure.o
 .bss           0x0000000000000000        0x0 build/py/objclosure.o
 .text          0x0000000000000000        0x0 build/py/objcomplex.o
 .data          0x0000000000000000        0x0 build/py/objcomplex.o
 .bss           0x0000000000000000        0x0 build/py/objcomplex.o
 .debug_info    0x0000000000000000       0x72 build/py/objcomplex.o
 .debug_abbrev  0x0000000000000000       0x26 build/py/objcomplex.o
 .debug_aranges
                0x0000000000000000       0x18 build/py/objcomplex.o
 .debug_line    0x0000000000000000       0x1d build/py/objcomplex.o
 .debug_str     0x0000000000000000      0x1a5 build/py/objcomplex.o
 .comment       0x0000000000000000       0x34 build/py/objcomplex.o
 .ARM.attributes
                0x0000000000000000       0x37 build/py/objcomplex.o
 .text          0x0000000000000000        0x0 build/py/objdeque.o
 .data          0x0000000000000000        0x0 build/py/objdeque.o
 .bss           0x0000000000000000        0x0 build/py/objdeque.o
 .debug_info    0x0000000000000000       0x6b build/py/objdeque.o
 .debug_abbrev  0x0000000000000000       0x26 build/py/objdeque.o
 .debug_aranges
                0x0000000000000000       0x18 build/py/objdeque.o
 .debug_line    0x0000000000000000       0x1d build/py/objdeque.o
 .debug_str     0x0000000000000000      0x19d build/py/objdeque.o
 .comment       0x0000000000000000       0x34 build/py/objdeque.o
 .ARM.attributes
                0x0000000000000000       0x37 build/py/objdeque.o
 .text          0x0000000000000000        0x0 build/py/objdict.o
 .data          0x0000000000000000        0x0 build/py/objdict.o
 .bss           0x0000000000000000        0x0 build/py/objdict.o
 .rodata.mp_const_empty_dict_obj
                0x0000000000000000       0x10 build/py/objdict.o
 .text          0x0000000000000000        0x0 build/py/objenumerate.o
 .data          0x0000000000000000        0x0 build/py/objenumerate.o
 .bss           0x0000000000000000        0x0 build/py/objenumerate.o
 .debug_info    0x0000000000000000       0x72 build/py/objenumerate.o
 .debug_abbrev  0x0000000000000000       0x26 build/py/objenumerate.o
 .debug_aranges
                0x0000000000000000       0x18 build/py/objenumerate.o
 .debug_line    0x0000000000000000       0x1d build/py/objenumerate.o
 .debug_str     0x0000000000000000      0x1a7 build/py/objenumerate.o
 .comment       0x0000000000000000       0x34 build/py/objenumerate.o
 .ARM.attributes
                0x0000000000000000       0x37 build/py/objenumerate.o
 .text          0x0000000000000000        0x0 build/py/objexcept.o
 .data          0x0000000000000000        0x0 build/py/objexcept.o
 .bss           0x0000000000000000        0x0 build/py/objexcept.o
 .text.mp_obj_new_exception_args
                0x0000000000000000        0x8 build/py/objexcept.o
 .text.mp_obj_new_exception_msg_varg
                0x0000000000000000       0x1a build/py/objexcept.o
 .text.mp_obj_exception_clear_traceback
                0x0000000000000000        0xc build/py/objexcept.o
 .text          0x0000000000000000        0x0 build/py/objfilter.o
 .data          0x0000000000000000        0x0 build/py/objfilter.o
 .bss           0x0000000000000000        0x0 build/py/objfilter.o
 .debug_info    0x0000000000000000       0x72 build/py/objfilter.o
 .debug_abbrev  0x0000000000000000       0x26 build/py/objfilter.o
 .debug_aranges
                0x0000000000000000       0x18 build/py/objfilter.o
 .debug_line    0x0000000000000000       0x1d build/py/objfilter.o
 .debug_str     0x0000000000000000      0x1a4 build/py/objfilter.o
 .comment       0x0000000000000000       0x34 build/py/objfilter.o
 .ARM.attributes
                0x0000000000000000       0x37 build/py/objfilter.o
 .text          0x0000000000000000        0x0 build/py/objfloat.o
 .data          0x0000000000000000        0x0 build/py/objfloat.o
 .bss           0x0000000000000000        0x0 build/py/objfloat.o
 .debug_info    0x0000000000000000       0x72 build/py/objfloat.o
 .debug_abbrev  0x0000000000000000       0x26 build/py/objfloat.o
 .debug_aranges
                0x0000000000000000       0x18 build/py/objfloat.o
 .debug_line    0x0000000000000000       0x1d build/py/objfloat.o
 .debug_str     0x0000000000000000      0x1a3 build/py/objfloat.o
 .comment       0x0000000000000000       0x34 build/py/objfloat.o
 .ARM.attributes
                0x0000000000000000       0x37 build/py/objfloat.o
 .text          0x0000000000000000        0x0 build/py/objfun.o
 .data          0x0000000000000000        0x0 build/py/objfun.o
 .bss           0x0000000000000000        0x0 build/py/objfun.o
 .text          0x0000000000000000        0x0 build/py/objgenerator.o
 .data          0x0000000000000000        0x0 build/py/objgenerator.o
 .bss           0x0000000000000000        0x0 build/py/objgenerator.o
 .text          0x0000000000000000        0x0 build/py/objgetitemiter.o
 .data          0x0000000000000000        0x0 build/py/objgetitemiter.o
 .bss           0x0000000000000000        0x0 build/py/objgetitemiter.o
 .text          0x0000000000000000        0x0 build/py/objint.o
 .data          0x0000000000000000        0x0 build/py/objint.o
 .bss           0x0000000000000000        0x0 build/py/objint.o
 .text.mp_obj_new_int_from_ull
                0x0000000000000000       0x14 build/py/objint.o
 .text          0x0000000000000000        0x0 build/py/objint_longlong.o
 .data          0x0000000000000000        0x0 build/py/objint_longlong.o
 .bss           0x0000000000000000        0x0 build/py/objint_longlong.o
 .debug_info    0x0000000000000000       0x72 build/py/objint_longlong.o
 .debug_abbrev  0x0000000000000000       0x26 build/py/objint_longlong.o
 .debug_aranges
                0x0000000000000000       0x18 build/py/objint_longlong.o
 .debug_line    0x0000000000000000       0x1d build/py/objint_longlong.o
 .debug_str     0x0000000000000000      0x1aa build/py/objint_longlong.o
 .comment       0x0000000000000000       0x34 build/py/objint_longlong.o
 .ARM.attributes
                0x0000000000000000       0x37 build/py/objint_longlong.o
 .text          0x0000000000000000        0x0 build/py/objint_mpz.o
 .data          0x0000000000000000        0x0 build/py/objint_mpz.o
 .bss           0x0000000000000000        0x0 build/py/objint_mpz.o
 .debug_info    0x0000000000000000       0x72 build/py/objint_mpz.o
 .debug_abbrev  0x0000000000000000       0x26 build/py/objint_mpz.o
 .debug_aranges
                0x0000000000000000       0x18 build/py/objint_mpz.o
 .debug_line    0x0000000000000000       0x1d build/py/objint_mpz.o
 .debug_str     0x0000000000000000      0x1a5 build/py/objint_mpz.o
 .comment       0x0000000000000000       0x34 build/py/objint_mpz.o
 .ARM.attributes
                0x0000000000000000       0x37 build/py/objint_mpz.o
 .text          0x0000000000000000        0x0 build/py/objlist.o
 .data          0x0000000000000000        0x0 build/py/objlist.o
 .bss           0x0000000000000000        0x0 build/py/objlist.o
 .text          0x0000000000000000        0x0 build/py/objmap.o
 .data          0x0000000000000000        0x0 build/py/objmap.o
 .bss           0x0000000000000000        0x0 build/py/objmap.o
 .text          0x0000000000000000        0x0 build/py/objmodule.o
 .data          0x0000000000000000        0x0 build/py/objmodule.o
 .bss           0x0000000000000000        0x0 build/py/objmodule.o
 .text.mp_module_generic_attr
                0x0000000000000000       0x28 build/py/objmodule.o
 .text          0x0000000000000000        0x0 build/py/objobject.o
 .data          0x0000000000000000        0x0 build/py/objobject.o
 .bss           0x0000000000000000        0x0 build/py/objobject.o
 .text          0x0000000000000000        0x0 build/py/objpolyiter.o
 .data          0x0000000000000000        0x0 build/py/objpolyiter.o
 .bss           0x0000000000000000        0x0 build/py/objpolyiter.o
 .text          0x0000000000000000        0x0 build/py/objproperty.o
 .data          0x0000000000000000        0x0 build/py/objproperty.o
 .bss           0x0000000000000000        0x0 build/py/objproperty.o
 .debug_info    0x0000000000000000       0x72 build/py/objproperty.o
 .debug_abbrev  0x0000000000000000       0x26 build/py/objproperty.o
 .debug_aranges
                0x0000000000000000       0x18 build/py/objproperty.o
 .debug_line    0x0000000000000000       0x1d build/py/objproperty.o
 .debug_str     0x0000000000000000      0x1a6 build/py/objproperty.o
 .comment       0x0000000000000000       0x34 build/py/objproperty.o
 .ARM.attributes
                0x0000000000000000       0x37 build/py/objproperty.o
 .text          0x0000000000000000        0x0 build/py/objnone.o
 .data          0x0000000000000000        0x0 build/py/objnone.o
 .bss           0x0000000000000000        0x0 build/py/objnone.o
 .text          0x0000000000000000        0x0 build/py/objnamedtuple.o
 .data          0x0000000000000000        0x0 build/py/objnamedtuple.o
 .bss           0x0000000000000000        0x0 build/py/objnamedtuple.o
 .debug_info    0x0000000000000000       0x72 build/py/objnamedtuple.o
 .debug_abbrev  0x0000000000000000       0x26 build/py/objnamedtuple.o
 .debug_aranges
                0x0000000000000000       0x18 build/py/objnamedtuple.o
 .debug_line    0x0000000000000000       0x1d build/py/objnamedtuple.o
 .debug_str     0x0000000000000000      0x1a8 build/py/objnamedtuple.o
 .comment       0x0000000000000000       0x34 build/py/objnamedtuple.o
 .ARM.attributes
                0x0000000000000000       0x37 build/py/objnamedtuple.o
 .text          0x0000000000000000        0x0 build/py/objrange.o
 .data          0x0000000000000000        0x0 build/py/objrange.o
 .bss           0x0000000000000000        0x0 build/py/objrange.o
 .text          0x0000000000000000        0x0 build/py/objreversed.o
 .data          0x0000000000000000        0x0 build/py/objreversed.o
 .bss           0x0000000000000000        0x0 build/py/objreversed.o
 .debug_info    0x0000000000000000       0x72 build/py/objreversed.o
 .debug_abbrev  0x0000000000000000       0x26 build/py/objreversed.o
 .debug_aranges
                0x0000000000000000       0x18 build/py/objreversed.o
 .debug_line    0x0000000000000000       0x1d build/py/objreversed.o
 .debug_str     0x0000000000000000      0x1a6 build/py/objreversed.o
 .comment       0x0000000000000000       0x34 build/py/objreversed.o
 .ARM.attributes
                0x0000000000000000       0x37 build/py/objreversed.o
 .text          0x0000000000000000        0x0 build/py/objset.o
 .data          0x0000000000000000        0x0 build/py/objset.o
 .bss           0x0000000000000000        0x0 build/py/objset.o
 .debug_info    0x0000000000000000       0x72 build/py/objset.o
 .debug_abbrev  0x0000000000000000       0x26 build/py/objset.o
 .debug_aranges
                0x0000000000000000       0x18 build/py/objset.o
 .debug_line    0x0000000000000000       0x1d build/py/objset.o
 .debug_str     0x0000000000000000      0x1a1 build/py/objset.o
 .comment       0x0000000000000000       0x34 build/py/objset.o
 .ARM.attributes
                0x0000000000000000       0x37 build/py/objset.o
 .text          0x0000000000000000        0x0 build/py/objsingleton.o
 .data          0x0000000000000000        0x0 build/py/objsingleton.o
 .bss           0x0000000000000000        0x0 build/py/objsingleton.o
 .text          0x0000000000000000        0x0 build/py/objslice.o
 .data          0x0000000000000000        0x0 build/py/objslice.o
 .bss           0x0000000000000000        0x0 build/py/objslice.o
 .debug_info    0x0000000000000000       0x72 build/py/objslice.o
 .debug_abbrev  0x0000000000000000       0x26 build/py/objslice.o
 .debug_aranges
                0x0000000000000000       0x18 build/py/objslice.o
 .debug_line    0x0000000000000000       0x1d build/py/objslice.o
 .debug_str     0x0000000000000000      0x1a3 build/py/objslice.o
 .comment       0x0000000000000000       0x34 build/py/objslice.o
 .ARM.attributes
                0x0000000000000000       0x37 build/py/objslice.o
 .text          0x0000000000000000        0x0 build/py/objstr.o
 .data          0x0000000000000000        0x0 build/py/objstr.o
 .bss           0x0000000000000000        0x0 build/py/objstr.o
 .text.str_index_to_ptr
                0x0000000000000000       0x14 build/py/objstr.o
 .text.mp_obj_str_set_data
                0x0000000000000000       0x14 build/py/objstr.o
 .text.mp_obj_str_intern
                0x0000000000000000       0x26 build/py/objstr.o
 .text          0x0000000000000000        0x0 build/py/objstrunicode.o
 .data          0x0000000000000000        0x0 build/py/objstrunicode.o
 .bss           0x0000000000000000        0x0 build/py/objstrunicode.o
 .debug_info    0x0000000000000000       0x72 build/py/objstrunicode.o
 .debug_abbrev  0x0000000000000000       0x26 build/py/objstrunicode.o
 .debug_aranges
                0x0000000000000000       0x18 build/py/objstrunicode.o
 .debug_line    0x0000000000000000       0x1d build/py/objstrunicode.o
 .debug_str     0x0000000000000000      0x1a8 build/py/objstrunicode.o
 .comment       0x0000000000000000       0x34 build/py/objstrunicode.o
 .ARM.attributes
                0x0000000000000000       0x37 build/py/objstrunicode.o
 .text          0x0000000000000000        0x0 build/py/objstringio.o
 .data          0x0000000000000000        0x0 build/py/objstringio.o
 .bss           0x0000000000000000        0x0 build/py/objstringio.o
 .debug_info    0x0000000000000000       0x72 build/py/objstringio.o
 .debug_abbrev  0x0000000000000000       0x26 build/py/objstringio.o
 .debug_aranges
                0x0000000000000000       0x18 build/py/objstringio.o
 .debug_line    0x0000000000000000       0x1d build/py/objstringio.o
 .debug_str     0x0000000000000000      0x1a6 build/py/objstringio.o
 .comment       0x0000000000000000       0x34 build/py/objstringio.o
 .ARM.attributes
                0x0000000000000000       0x37 build/py/objstringio.o
 .text          0x0000000000000000        0x0 build/py/objtuple.o
 .data          0x0000000000000000        0x0 build/py/objtuple.o
 .bss           0x0000000000000000        0x0 build/py/objtuple.o
 .text          0x0000000000000000        0x0 build/py/objtype.o
 .data          0x0000000000000000        0x0 build/py/objtype.o
 .bss           0x0000000000000000        0x0 build/py/objtype.o
 .text          0x0000000000000000        0x0 build/py/objzip.o
 .data          0x0000000000000000        0x0 build/py/objzip.o
 .bss           0x0000000000000000        0x0 build/py/objzip.o
 .text          0x0000000000000000        0x0 build/py/opmethods.o
 .data          0x0000000000000000        0x0 build/py/opmethods.o
 .bss           0x0000000000000000        0x0 build/py/opmethods.o
 .text.op_contains
                0x0000000000000000       0x1e build/py/opmethods.o
 .rodata.mp_op_contains_obj
                0x0000000000000000        0x8 build/py/opmethods.o
 .text          0x0000000000000000        0x0 build/py/sequence.o
 .data          0x0000000000000000        0x0 build/py/sequence.o
 .bss           0x0000000000000000        0x0 build/py/sequence.o
 .text.mp_seq_extract_slice
                0x0000000000000000       0x44 build/py/sequence.o
 .text          0x0000000000000000        0x0 build/py/stream.o
 .data          0x0000000000000000        0x0 build/py/stream.o
 .bss           0x0000000000000000        0x0 build/py/stream.o
 .text.mp_stream_close
                0x0000000000000000       0x24 build/py/stream.o
 .text.stream_flush
                0x0000000000000000       0x24 build/py/stream.o
 .text.stream_unbuffered_readlines
                0x0000000000000000       0x2e build/py/stream.o
 .text.stream_seek
                0x0000000000000000       0x56 build/py/stream.o
 .text.stream_tell
                0x0000000000000000       0x18 build/py/stream.o
 .text.stream_ioctl
                0x0000000000000000       0x52 build/py/stream.o
 .text.mp_stream_rw
                0x0000000000000000       0x52 build/py/stream.o
 .text.stream_read_generic
                0x0000000000000000       0xba build/py/stream.o
 .text.stream_read
                0x0000000000000000        0x6 build/py/stream.o
 .text.stream_read1
                0x0000000000000000        0x6 build/py/stream.o
 .text.stream_readinto
                0x0000000000000000       0x4a build/py/stream.o
 .rodata.mp_get_stream_raise.str1.1
                0x0000000000000000       0x14 build/py/stream.o
 .text.mp_get_stream_raise
                0x0000000000000000       0x3c build/py/stream.o
 .text.mp_stream_write
                0x0000000000000000       0x20 build/py/stream.o
 .text.stream_write_method
                0x0000000000000000       0x60 build/py/stream.o
 .text.stream_write1_method
                0x0000000000000000       0x1e build/py/stream.o
 .text.mp_stream_write_adaptor
                0x0000000000000000        0x6 build/py/stream.o
 .rodata.mp_stream_close_obj
                0x0000000000000000        0x8 build/py/stream.o
 .rodata.mp_stream_flush_obj
                0x0000000000000000        0x8 build/py/stream.o
 .rodata.mp_stream_ioctl_obj
                0x0000000000000000        0xc build/py/stream.o
 .rodata.mp_stream_read1_obj
                0x0000000000000000        0xc build/py/stream.o
 .rodata.mp_stream_read_obj
                0x0000000000000000        0xc build/py/stream.o
 .rodata.mp_stream_readinto_obj
                0x0000000000000000        0xc build/py/stream.o
 .rodata.mp_stream_seek_obj
                0x0000000000000000        0xc build/py/stream.o
 .rodata.mp_stream_tell_obj
                0x0000000000000000        0x8 build/py/stream.o
 .rodata.mp_stream_unbuffered_readline_obj
                0x0000000000000000        0xc build/py/stream.o
 .rodata.mp_stream_unbuffered_readlines_obj
                0x0000000000000000        0x8 build/py/stream.o
 .rodata.mp_stream_write1_obj
                0x0000000000000000        0x8 build/py/stream.o
 .rodata.mp_stream_write_obj
                0x0000000000000000        0xc build/py/stream.o
 .text          0x0000000000000000        0x0 build/py/binary.o
 .data          0x0000000000000000        0x0 build/py/binary.o
 .bss           0x0000000000000000        0x0 build/py/binary.o
 .rodata.mp_binary_get_size.str1.1
                0x0000000000000000        0xb build/py/binary.o
 .text.mp_binary_get_size
                0x0000000000000000      0x140 build/py/binary.o
 .text.mp_binary_get_val_array
                0x0000000000000000       0xc8 build/py/binary.o
 .text.mp_binary_get_int
                0x0000000000000000       0x38 build/py/binary.o
 .text.mp_binary_get_val
                0x0000000000000000       0x9c build/py/binary.o
 .text.mp_binary_set_val
                0x0000000000000000       0x80 build/py/binary.o
 .text.mp_binary_set_val_array_from_int
                0x0000000000000000       0xa8 build/py/binary.o
 .text.mp_binary_set_val_array
                0x0000000000000000       0x28 build/py/binary.o
 .text          0x0000000000000000        0x0 build/py/builtinimport.o
 .data          0x0000000000000000        0x0 build/py/builtinimport.o
 .bss           0x0000000000000000        0x0 build/py/builtinimport.o
 .text          0x0000000000000000        0x0 build/py/builtinevex.o
 .data          0x0000000000000000        0x0 build/py/builtinevex.o
 .bss           0x0000000000000000        0x0 build/py/builtinevex.o
 .text          0x0000000000000000        0x0 build/py/builtinhelp.o
 .data          0x0000000000000000        0x0 build/py/builtinhelp.o
 .bss           0x0000000000000000        0x0 build/py/builtinhelp.o
 .debug_info    0x0000000000000000       0x72 build/py/builtinhelp.o
 .debug_abbrev  0x0000000000000000       0x26 build/py/builtinhelp.o
 .debug_aranges
                0x0000000000000000       0x18 build/py/builtinhelp.o
 .debug_line    0x0000000000000000       0x1d build/py/builtinhelp.o
 .debug_str     0x0000000000000000      0x1a6 build/py/builtinhelp.o
 .comment       0x0000000000000000       0x34 build/py/builtinhelp.o
 .ARM.attributes
                0x0000000000000000       0x37 build/py/builtinhelp.o
 .text          0x0000000000000000        0x0 build/py/modarray.o
 .data          0x0000000000000000        0x0 build/py/modarray.o
 .bss           0x0000000000000000        0x0 build/py/modarray.o
 .debug_info    0x0000000000000000       0x72 build/py/modarray.o
 .debug_abbrev  0x0000000000000000       0x26 build/py/modarray.o
 .debug_aranges
                0x0000000000000000       0x18 build/py/modarray.o
 .debug_line    0x0000000000000000       0x1d build/py/modarray.o
 .debug_str     0x0000000000000000      0x1a3 build/py/modarray.o
 .comment       0x0000000000000000       0x34 build/py/modarray.o
 .ARM.attributes
                0x0000000000000000       0x37 build/py/modarray.o
 .text          0x0000000000000000        0x0 build/py/modbuiltins.o
 .data          0x0000000000000000        0x0 build/py/modbuiltins.o
 .bss           0x0000000000000000        0x0 build/py/modbuiltins.o
 .text          0x0000000000000000        0x0 build/py/modcollections.o
 .data          0x0000000000000000        0x0 build/py/modcollections.o
 .bss           0x0000000000000000        0x0 build/py/modcollections.o
 .debug_info    0x0000000000000000       0x72 build/py/modcollections.o
 .debug_abbrev  0x0000000000000000       0x26 build/py/modcollections.o
 .debug_aranges
                0x0000000000000000       0x18 build/py/modcollections.o
 .debug_line    0x0000000000000000       0x1d build/py/modcollections.o
 .debug_str     0x0000000000000000      0x1a9 build/py/modcollections.o
 .comment       0x0000000000000000       0x34 build/py/modcollections.o
 .ARM.attributes
                0x0000000000000000       0x37 build/py/modcollections.o
 .text          0x0000000000000000        0x0 build/py/modgc.o
 .data          0x0000000000000000        0x0 build/py/modgc.o
 .bss           0x0000000000000000        0x0 build/py/modgc.o
 .debug_info    0x0000000000000000       0x72 build/py/modgc.o
 .debug_abbrev  0x0000000000000000       0x26 build/py/modgc.o
 .debug_aranges
                0x0000000000000000       0x18 build/py/modgc.o
 .debug_line    0x0000000000000000       0x1d build/py/modgc.o
 .debug_str     0x0000000000000000      0x1a0 build/py/modgc.o
 .comment       0x0000000000000000       0x34 build/py/modgc.o
 .ARM.attributes
                0x0000000000000000       0x37 build/py/modgc.o
 .text          0x0000000000000000        0x0 build/py/modio.o
 .data          0x0000000000000000        0x0 build/py/modio.o
 .bss           0x0000000000000000        0x0 build/py/modio.o
 .debug_info    0x0000000000000000       0x72 build/py/modio.o
 .debug_abbrev  0x0000000000000000       0x26 build/py/modio.o
 .debug_aranges
                0x0000000000000000       0x18 build/py/modio.o
 .debug_line    0x0000000000000000       0x1d build/py/modio.o
 .debug_str     0x0000000000000000      0x1a0 build/py/modio.o
 .comment       0x0000000000000000       0x34 build/py/modio.o
 .ARM.attributes
                0x0000000000000000       0x37 build/py/modio.o
 .text          0x0000000000000000        0x0 build/py/modmath.o
 .data          0x0000000000000000        0x0 build/py/modmath.o
 .bss           0x0000000000000000        0x0 build/py/modmath.o
 .debug_info    0x0000000000000000       0x72 build/py/modmath.o
 .debug_abbrev  0x0000000000000000       0x26 build/py/modmath.o
 .debug_aranges
                0x0000000000000000       0x18 build/py/modmath.o
 .debug_line    0x0000000000000000       0x1d build/py/modmath.o
 .debug_str     0x0000000000000000      0x1a2 build/py/modmath.o
 .comment       0x0000000000000000       0x34 build/py/modmath.o
 .ARM.attributes
                0x0000000000000000       0x37 build/py/modmath.o
 .text          0x0000000000000000        0x0 build/py/modcmath.o
 .data          0x0000000000000000        0x0 build/py/modcmath.o
 .bss           0x0000000000000000        0x0 build/py/modcmath.o
 .debug_info    0x0000000000000000       0x72 build/py/modcmath.o
 .debug_abbrev  0x0000000000000000       0x26 build/py/modcmath.o
 .debug_aranges
                0x0000000000000000       0x18 build/py/modcmath.o
 .debug_line    0x0000000000000000       0x1d build/py/modcmath.o
 .debug_str     0x0000000000000000      0x1a3 build/py/modcmath.o
 .comment       0x0000000000000000       0x34 build/py/modcmath.o
 .ARM.attributes
                0x0000000000000000       0x37 build/py/modcmath.o
 .text          0x0000000000000000        0x0 build/py/modmicropython.o
 .data          0x0000000000000000        0x0 build/py/modmicropython.o
 .bss           0x0000000000000000        0x0 build/py/modmicropython.o
 .text          0x0000000000000000        0x0 build/py/modstruct.o
 .data          0x0000000000000000        0x0 build/py/modstruct.o
 .bss           0x0000000000000000        0x0 build/py/modstruct.o
 .debug_info    0x0000000000000000       0x72 build/py/modstruct.o
 .debug_abbrev  0x0000000000000000       0x26 build/py/modstruct.o
 .debug_aranges
                0x0000000000000000       0x18 build/py/modstruct.o
 .debug_line    0x0000000000000000       0x1d build/py/modstruct.o
 .debug_str     0x0000000000000000      0x1a4 build/py/modstruct.o
 .comment       0x0000000000000000       0x34 build/py/modstruct.o
 .ARM.attributes
                0x0000000000000000       0x37 build/py/modstruct.o
 .text          0x0000000000000000        0x0 build/py/modsys.o
 .data          0x0000000000000000        0x0 build/py/modsys.o
 .bss           0x0000000000000000        0x0 build/py/modsys.o
 .debug_info    0x0000000000000000       0x72 build/py/modsys.o
 .debug_abbrev  0x0000000000000000       0x26 build/py/modsys.o
 .debug_aranges
                0x0000000000000000       0x18 build/py/modsys.o
 .debug_line    0x0000000000000000       0x1d build/py/modsys.o
 .debug_str     0x0000000000000000      0x1a1 build/py/modsys.o
 .comment       0x0000000000000000       0x34 build/py/modsys.o
 .ARM.attributes
                0x0000000000000000       0x37 build/py/modsys.o
 .text          0x0000000000000000        0x0 build/py/moduerrno.o
 .data          0x0000000000000000        0x0 build/py/moduerrno.o
 .bss           0x0000000000000000        0x0 build/py/moduerrno.o
 .debug_info    0x0000000000000000       0x72 build/py/moduerrno.o
 .debug_abbrev  0x0000000000000000       0x26 build/py/moduerrno.o
 .debug_aranges
                0x0000000000000000       0x18 build/py/moduerrno.o
 .debug_line    0x0000000000000000       0x1d build/py/moduerrno.o
 .debug_str     0x0000000000000000      0x1a4 build/py/moduerrno.o
 .comment       0x0000000000000000       0x34 build/py/moduerrno.o
 .ARM.attributes
                0x0000000000000000       0x37 build/py/moduerrno.o
 .text          0x0000000000000000        0x0 build/py/modthread.o
 .data          0x0000000000000000        0x0 build/py/modthread.o
 .bss           0x0000000000000000        0x0 build/py/modthread.o
 .debug_info    0x0000000000000000       0x72 build/py/modthread.o
 .debug_abbrev  0x0000000000000000       0x26 build/py/modthread.o
 .debug_aranges
                0x0000000000000000       0x18 build/py/modthread.o
 .debug_line    0x0000000000000000       0x1d build/py/modthread.o
 .debug_str     0x0000000000000000      0x1a4 build/py/modthread.o
 .comment       0x0000000000000000       0x34 build/py/modthread.o
 .ARM.attributes
                0x0000000000000000       0x37 build/py/modthread.o
 .text          0x0000000000000000        0x0 build/py/vm.o
 .data          0x0000000000000000        0x0 build/py/vm.o
 .bss           0x0000000000000000        0x0 build/py/vm.o
 .text          0x0000000000000000        0x0 build/py/bc.o
 .data          0x0000000000000000        0x0 build/py/bc.o
 .bss           0x0000000000000000        0x0 build/py/bc.o
 .text          0x0000000000000000        0x0 build/py/showbc.o
 .data          0x0000000000000000        0x0 build/py/showbc.o
 .bss           0x0000000000000000        0x0 build/py/showbc.o
 .debug_info    0x0000000000000000       0x72 build/py/showbc.o
 .debug_abbrev  0x0000000000000000       0x26 build/py/showbc.o
 .debug_aranges
                0x0000000000000000       0x18 build/py/showbc.o
 .debug_line    0x0000000000000000       0x1d build/py/showbc.o
 .debug_str     0x0000000000000000      0x1a1 build/py/showbc.o
 .comment       0x0000000000000000       0x34 build/py/showbc.o
 .ARM.attributes
                0x0000000000000000       0x37 build/py/showbc.o
 .text          0x0000000000000000        0x0 build/py/repl.o
 .data          0x0000000000000000        0x0 build/py/repl.o
 .bss           0x0000000000000000        0x0 build/py/repl.o
 .text          0x0000000000000000        0x0 build/py/smallint.o
 .data          0x0000000000000000        0x0 build/py/smallint.o
 .bss           0x0000000000000000        0x0 build/py/smallint.o
 .text          0x0000000000000000        0x0 build/py/frozenmod.o
 .data          0x0000000000000000        0x0 build/py/frozenmod.o
 .bss           0x0000000000000000        0x0 build/py/frozenmod.o
 .text          0x0000000000000000        0x0 build/main.o
 .data          0x0000000000000000        0x0 build/main.o
 .bss           0x0000000000000000        0x0 build/main.o
 .text.do_str   0x0000000000000000       0x54 build/main.o
 .text.__fatal_error
                0x0000000000000000        0x2 build/main.o
 .text          0x0000000000000000        0x0 build/uart_core.o
 .data          0x0000000000000000        0x0 build/uart_core.o
 .bss           0x0000000000000000        0x0 build/uart_core.o
 .text          0x0000000000000000        0x0 build/STdriver.o
 .data          0x0000000000000000        0x0 build/STdriver.o
 .bss           0x0000000000000000        0x0 build/STdriver.o
 .text.FnCapital
                0x0000000000000000       0x24 build/STdriver.o
 .text.RCCAHB1PeriphClockCmd
                0x0000000000000000       0x18 build/STdriver.o
 .text.RCCAPB1PeriphClockCmd
                0x0000000000000000       0x18 build/STdriver.o
 .text.RCCHSEConfig
                0x0000000000000000       0x10 build/STdriver.o
 .text.RCCHSICmd
                0x0000000000000000        0xc build/STdriver.o
 .text.RCCGetSYSCLKSource
                0x0000000000000000       0x10 build/STdriver.o
 .text.RCCPLLConfig
                0x0000000000000000       0x28 build/STdriver.o
 .text.RCCPLLCmd
                0x0000000000000000        0xc build/STdriver.o
 .text.FLASHSetLatency
                0x0000000000000000        0xc build/STdriver.o
 .text.RCCGetFlagStatus
                0x0000000000000000       0x28 build/STdriver.o
 .text.NVICInit
                0x0000000000000000       0x2c build/STdriver.o
 .text.USART2_IRQHandler
                0x0000000000000000       0x5c build/STdriver.o
 .text.GPIOPinAFConfig
                0x0000000000000000       0x24 build/STdriver.o
 .text.GPIOSetBits
                0x0000000000000000        0x4 build/STdriver.o
 .text.GPIOResetBits
                0x0000000000000000        0x6 build/STdriver.o
 .text.USARTSendData
                0x0000000000000000        0x8 build/STdriver.o
 .text.USARTReceiveData
                0x0000000000000000        0x8 build/STdriver.o
 .text.USARTGetFlagStatus
                0x0000000000000000        0xc build/STdriver.o
 .text.USARTITConfig
                0x0000000000000000       0x30 build/STdriver.o
 .text.USARTClearFlag
                0x0000000000000000        0x8 build/STdriver.o
 .text.USARTCmd
                0x0000000000000000       0x18 build/STdriver.o
 .text.__io_putchar
                0x0000000000000000       0x18 build/STdriver.o
 .bss.uc8Buffer
                0x0000000000000000      0x12c build/STdriver.o
 .bss.ui16BufferCount
                0x0000000000000000        0x2 build/STdriver.o
 .text          0x0000000000000000        0x0 build/shared/libc/printf.o
 .data          0x0000000000000000        0x0 build/shared/libc/printf.o
 .bss           0x0000000000000000        0x0 build/shared/libc/printf.o
 .text.vprintf  0x0000000000000000       0x10 build/shared/libc/printf.o
 .text.putchar  0x0000000000000000       0x1a build/shared/libc/printf.o
 .text.puts     0x0000000000000000       0x26 build/shared/libc/printf.o
 .text          0x0000000000000000        0x0 build/shared/readline/readline.o
 .data          0x0000000000000000        0x0 build/shared/readline/readline.o
 .bss           0x0000000000000000        0x0 build/shared/readline/readline.o
 .text.readline_init0
                0x0000000000000000       0x10 build/shared/readline/readline.o
 .text.readline_note_newline
                0x0000000000000000       0x14 build/shared/readline/readline.o
 .text          0x0000000000000000        0x0 build/shared/runtime/pyexec.o
 .data          0x0000000000000000        0x0 build/shared/runtime/pyexec.o
 .bss           0x0000000000000000        0x0 build/shared/runtime/pyexec.o
 .text.mp_reader_stdin_close
                0x0000000000000000       0x20 build/shared/runtime/pyexec.o
 .rodata.mp_reader_stdin_readbyte.str1.1
                0x0000000000000000        0x2 build/shared/runtime/pyexec.o
 .text.mp_reader_stdin_readbyte
                0x0000000000000000       0x58 build/shared/runtime/pyexec.o
 .text.pyexec_raw_repl
                0x0000000000000000      0x12c build/shared/runtime/pyexec.o
 .text.pyexec_file
                0x0000000000000000        0x8 build/shared/runtime/pyexec.o
 .rodata.pyexec_frozen_module.str1.1
                0x0000000000000000       0x1c build/shared/runtime/pyexec.o
 .text.pyexec_frozen_module
                0x0000000000000000       0x30 build/shared/runtime/pyexec.o
 .text.pyexec_file_if_exists
                0x0000000000000000       0x30 build/shared/runtime/pyexec.o
 .rodata        0x0000000000000000        0x3 build/shared/runtime/pyexec.o
 .text          0x0000000000000000        0x0 build/shared/runtime/stdout_helpers.o
 .data          0x0000000000000000        0x0 build/shared/runtime/stdout_helpers.o
 .bss           0x0000000000000000        0x0 build/shared/runtime/stdout_helpers.o
 .text          0x0000000000000000        0x0 build/build/_frozen_mpy.o
 .data          0x0000000000000000        0x0 build/build/_frozen_mpy.o
 .bss           0x0000000000000000        0x0 build/build/_frozen_mpy.o
 .text          0x0000000000000000        0x0 build/shared/libc/string0.o
 .data          0x0000000000000000        0x0 build/shared/libc/string0.o
 .bss           0x0000000000000000        0x0 build/shared/libc/string0.o
 .text.__memcpy_chk
                0x0000000000000000        0xc build/shared/libc/string0.o
 .text.memchr   0x0000000000000000       0x1c build/shared/libc/string0.o
 .text.strcpy   0x0000000000000000       0x14 build/shared/libc/string0.o
 .text.strncpy  0x0000000000000000       0x1e build/shared/libc/string0.o
 .text.stpcpy   0x0000000000000000       0x12 build/shared/libc/string0.o
 .text.strcat   0x0000000000000000       0x20 build/shared/libc/string0.o
 .text.strstr   0x0000000000000000       0x32 build/shared/libc/string0.o
 .text.strspn   0x0000000000000000       0x1e build/shared/libc/string0.o
 .text.strcspn  0x0000000000000000       0x1e build/shared/libc/string0.o

Memory Configuration

Name             Origin             Length             Attributes
FLASH            0x0000000008000000 0x0000000000080000 xr
RAM              0x0000000020000000 0x0000000000020000 xrw
*default*        0x0000000000000000 0xffffffffffffffff

Linker script and memory map

                0x000000002001ffff                _estack = 0x2001ffff
                0x0000000000000200                _Min_Heap_Size = 0x200
                0x0000000000000400                _Min_Stack_Size = 0x400

.isr_vector     0x0000000008000000       0x40
                0x0000000008000000                . = ALIGN (0x4)
 *(.isr_vector)
 .isr_vector    0x0000000008000000       0x40 build/main.o
                0x0000000008000000                isr_vector
                0x0000000008000040                . = ALIGN (0x4)

.text           0x0000000008000040     0xd650
                0x0000000008000040                . = ALIGN (0x4)
 *(.text)
 *(.text*)
 .text.nlr_push_tail
                0x0000000008000040       0x10 build/py/nlr.o
                0x0000000008000040                nlr_push_tail
 .text.nlr_pop  0x0000000008000050       0x10 build/py/nlr.o
                0x0000000008000050                nlr_pop
 .text.nlr_push
                0x0000000008000060       0x24 build/py/nlrthumb.o
                0x0000000008000060                nlr_push
 .text.nlr_jump
                0x0000000008000084       0x3c build/py/nlrthumb.o
                0x0000000008000084                nlr_jump
 .text.m_malloc
                0x00000000080000c0       0x16 build/py/malloc.o
                0x00000000080000c0                m_malloc
 .text.m_malloc_maybe
                0x00000000080000d6        0x6 build/py/malloc.o
                0x00000000080000d6                m_malloc_maybe
 .text.m_malloc0
                0x00000000080000dc        0x4 build/py/malloc.o
                0x00000000080000dc                m_malloc0
 .text.m_realloc
                0x00000000080000e0       0x16 build/py/malloc.o
                0x00000000080000e0                m_realloc
 .text.m_realloc_maybe
                0x00000000080000f6        0x4 build/py/malloc.o
                0x00000000080000f6                m_realloc_maybe
 .text.m_free   0x00000000080000fa        0x4 build/py/malloc.o
                0x00000000080000fa                m_free
 *fill*         0x00000000080000fe        0x2 
 .text.gc_mark_subtree
                0x0000000008000100       0xac build/py/gc.o
 .text.gc_init  0x00000000080001ac       0x38 build/py/gc.o
                0x00000000080001ac                gc_init
 .text.gc_lock  0x00000000080001e4       0x10 build/py/gc.o
                0x00000000080001e4                gc_lock
 .text.gc_unlock
                0x00000000080001f4       0x10 build/py/gc.o
                0x00000000080001f4                gc_unlock
 .text.gc_is_locked
                0x0000000008000204       0x10 build/py/gc.o
                0x0000000008000204                gc_is_locked
 .text.gc_collect_root
                0x0000000008000214       0x68 build/py/gc.o
                0x0000000008000214                gc_collect_root
 .text.gc_collect_start
                0x000000000800027c       0x1c build/py/gc.o
                0x000000000800027c                gc_collect_start
 .text.gc_collect_end
                0x0000000008000298       0xb0 build/py/gc.o
                0x0000000008000298                gc_collect_end
 .text.gc_alloc
                0x0000000008000348      0x100 build/py/gc.o
                0x0000000008000348                gc_alloc
 .text.gc_free  0x0000000008000448       0x60 build/py/gc.o
                0x0000000008000448                gc_free
 .text.gc_realloc
                0x00000000080004a8      0x134 build/py/gc.o
                0x00000000080004a8                gc_realloc
 .text.find_qstr
                0x00000000080005dc       0x1c build/py/qstr.o
 .text.qstr_compute_hash
                0x00000000080005f8       0x20 build/py/qstr.o
                0x00000000080005f8                qstr_compute_hash
 .text.qstr_init
                0x0000000008000618       0x14 build/py/qstr.o
                0x0000000008000618                qstr_init
 .text.qstr_find_strn
                0x000000000800062c       0x58 build/py/qstr.o
                0x000000000800062c                qstr_find_strn
 .text.qstr_from_strn
                0x0000000008000684      0x11c build/py/qstr.o
                0x0000000008000684                qstr_from_strn
 .text.qstr_hash
                0x00000000080007a0       0x16 build/py/qstr.o
                0x00000000080007a0                qstr_hash
 .text.qstr_len
                0x00000000080007b6       0x16 build/py/qstr.o
                0x00000000080007b6                qstr_len
 .text.qstr_str
                0x00000000080007cc       0x18 build/py/qstr.o
                0x00000000080007cc                qstr_str
 .text.qstr_data
                0x00000000080007e4       0x1e build/py/qstr.o
                0x00000000080007e4                qstr_data
 *fill*         0x0000000008000802        0x2 
 .text.mp_decompress_rom_string
                0x0000000008000804       0x70 build/py/qstr.o
                0x0000000008000804                mp_decompress_rom_string
 .text.vstr_ensure_extra
                0x0000000008000874       0x38 build/py/vstr.o
 .text.vstr_add_strn
                0x00000000080008ac       0x24 build/py/vstr.o
                0x00000000080008ac                vstr_add_strn
 .text.vstr_ins_blank_bytes.constprop.0
                0x00000000080008d0       0x2e build/py/vstr.o
 .text.vstr_init
                0x00000000080008fe       0x1c build/py/vstr.o
                0x00000000080008fe                vstr_init
 .text.vstr_init_len
                0x000000000800091a       0x10 build/py/vstr.o
                0x000000000800091a                vstr_init_len
 .text.vstr_init_fixed_buf
                0x000000000800092a        0xe build/py/vstr.o
                0x000000000800092a                vstr_init_fixed_buf
 .text.vstr_init_print
                0x0000000008000938       0x18 build/py/vstr.o
                0x0000000008000938                vstr_init_print
 .text.vstr_clear
                0x0000000008000950       0x14 build/py/vstr.o
                0x0000000008000950                vstr_clear
 .text.vstr_extend
                0x0000000008000964       0x2c build/py/vstr.o
                0x0000000008000964                vstr_extend
 .text.vstr_add_len
                0x0000000008000990       0x16 build/py/vstr.o
                0x0000000008000990                vstr_add_len
 .text.vstr_null_terminated_str
                0x00000000080009a6       0x1e build/py/vstr.o
                0x00000000080009a6                vstr_null_terminated_str
 .text.vstr_add_byte
                0x00000000080009c4        0xe build/py/vstr.o
                0x00000000080009c4                vstr_add_byte
 .text.vstr_add_char
                0x00000000080009d2        0x6 build/py/vstr.o
                0x00000000080009d2                vstr_add_char
 .text.vstr_add_str
                0x00000000080009d8       0x1a build/py/vstr.o
                0x00000000080009d8                vstr_add_str
 .text.vstr_ins_byte
                0x00000000080009f2        0xc build/py/vstr.o
                0x00000000080009f2                vstr_ins_byte
 .text.vstr_ins_char
                0x00000000080009fe        0xc build/py/vstr.o
                0x00000000080009fe                vstr_ins_char
 .text.vstr_cut_tail_bytes
                0x0000000008000a0a        0xe build/py/vstr.o
                0x0000000008000a0a                vstr_cut_tail_bytes
 .text.vstr_cut_out_bytes
                0x0000000008000a18       0x2c build/py/vstr.o
                0x0000000008000a18                vstr_cut_out_bytes
 .text.plat_print_strn
                0x0000000008000a44        0x8 build/py/mpprint.o
 .text.mp_print_str
                0x0000000008000a4c       0x1e build/py/mpprint.o
                0x0000000008000a4c                mp_print_str
 *fill*         0x0000000008000a6a        0x2 
 .text.mp_print_strn
                0x0000000008000a6c       0xbc build/py/mpprint.o
                0x0000000008000a6c                mp_print_strn
 .text.mp_print_int
                0x0000000008000b28       0xc4 build/py/mpprint.o
 .text.mp_print_mp_int
                0x0000000008000bec      0x22c build/py/mpprint.o
                0x0000000008000bec                mp_print_mp_int
 .text.mp_vprintf
                0x0000000008000e18      0x260 build/py/mpprint.o
                0x0000000008000e18                mp_vprintf
 .text.mp_printf
                0x0000000008001078       0x1a build/py/mpprint.o
                0x0000000008001078                mp_printf
 *fill*         0x0000000008001092        0x2 
 .text.unichar_isspace
                0x0000000008001094       0x14 build/py/unicode.o
                0x0000000008001094                unichar_isspace
 .text.unichar_isalpha
                0x00000000080010a8       0x14 build/py/unicode.o
                0x00000000080010a8                unichar_isalpha
 .text.unichar_isdigit
                0x00000000080010bc       0x14 build/py/unicode.o
                0x00000000080010bc                unichar_isdigit
 .text.unichar_isxdigit
                0x00000000080010d0       0x14 build/py/unicode.o
                0x00000000080010d0                unichar_isxdigit
 .text.unichar_isident
                0x00000000080010e4       0x24 build/py/unicode.o
                0x00000000080010e4                unichar_isident
 .text.unichar_isupper
                0x0000000008001108       0x14 build/py/unicode.o
                0x0000000008001108                unichar_isupper
 .text.unichar_islower
                0x000000000800111c       0x14 build/py/unicode.o
                0x000000000800111c                unichar_islower
 .text.unichar_tolower
                0x0000000008001130       0x10 build/py/unicode.o
                0x0000000008001130                unichar_tolower
 .text.unichar_toupper
                0x0000000008001140       0x10 build/py/unicode.o
                0x0000000008001140                unichar_toupper
 .text.unichar_xdigit_value
                0x0000000008001150        0xe build/py/unicode.o
                0x0000000008001150                unichar_xdigit_value
 .text.mp_reader_mem_readbyte
                0x000000000800115e       0x14 build/py/reader.o
 .text.mp_reader_mem_close
                0x0000000008001172       0x18 build/py/reader.o
 *fill*         0x000000000800118a        0x2 
 .text.mp_reader_new_mem
                0x000000000800118c       0x30 build/py/reader.o
                0x000000000800118c                mp_reader_new_mem
 .text.next_char
                0x00000000080011bc       0x60 build/py/lexer.o
 .text.skip_whitespace
                0x000000000800121c       0x60 build/py/lexer.o
 .text.is_string_or_bytes
                0x000000000800127c       0x4a build/py/lexer.o
 *fill*         0x00000000080012c6        0x2 
 .text.mp_lexer_to_next
                0x00000000080012c8      0x59c build/py/lexer.o
                0x00000000080012c8                mp_lexer_to_next
 .text.mp_lexer_new
                0x0000000008001864       0x7e build/py/lexer.o
                0x0000000008001864                mp_lexer_new
 .text.mp_lexer_new_from_str_len
                0x00000000080018e2       0x1c build/py/lexer.o
                0x00000000080018e2                mp_lexer_new_from_str_len
 .text.mp_lexer_free
                0x00000000080018fe       0x26 build/py/lexer.o
                0x00000000080018fe                mp_lexer_free
 .text.pop_result
                0x0000000008001924        0xe build/py/parse.o
 .text.parser_alloc
                0x0000000008001932       0x68 build/py/parse.o
 .text.push_result_node
                0x000000000800199a       0x2e build/py/parse.o
 .text.push_rule
                0x00000000080019c8       0x42 build/py/parse.o
 .text.push_rule_from_arg
                0x0000000008001a0a       0x10 build/py/parse.o
 *fill*         0x0000000008001a1a        0x2 
 .text.push_result_token.constprop.0
                0x0000000008001a1c       0xb4 build/py/parse.o
 .text.push_result_rule
                0x0000000008001ad0       0xaa build/py/parse.o
 .text.mp_parse_node_is_const_false
                0x0000000008001b7a       0x1c build/py/parse.o
                0x0000000008001b7a                mp_parse_node_is_const_false
 .text.mp_parse_node_is_const_true
                0x0000000008001b96       0x1c build/py/parse.o
                0x0000000008001b96                mp_parse_node_is_const_true
 .text.mp_parse_node_extract_list
                0x0000000008001bb2       0x26 build/py/parse.o
                0x0000000008001bb2                mp_parse_node_extract_list
 .text.mp_parse
                0x0000000008001bd8      0x38c build/py/parse.o
                0x0000000008001bd8                mp_parse
 .text.mp_parse_tree_clear
                0x0000000008001f64       0x12 build/py/parse.o
                0x0000000008001f64                mp_parse_tree_clear
 *fill*         0x0000000008001f76        0x2 
 .text.scope_new
                0x0000000008001f78       0x48 build/py/scope.o
                0x0000000008001f78                scope_new
 .text.scope_free
                0x0000000008001fc0       0x14 build/py/scope.o
                0x0000000008001fc0                scope_free
 .text.scope_find
                0x0000000008001fd4       0x20 build/py/scope.o
                0x0000000008001fd4                scope_find
 .text.scope_find_or_add_id
                0x0000000008001ff4       0x42 build/py/scope.o
                0x0000000008001ff4                scope_find_or_add_id
 .text.scope_find_global
                0x0000000008002036        0xe build/py/scope.o
                0x0000000008002036                scope_find_global
 .text.scope_check_to_close_over
                0x0000000008002044       0x4c build/py/scope.o
                0x0000000008002044                scope_check_to_close_over
 .text.apply_to_single_or_list
                0x0000000008002090       0x3e build/py/compile.o
 *fill*         0x00000000080020ce        0x2 
 .text.compile_del_stmt
                0x00000000080020d0       0x10 build/py/compile.o
 .text.compile_import_name
                0x00000000080020e0       0x10 build/py/compile.o
 .text.scope_new_and_link
                0x00000000080020f0       0x2a build/py/compile.o
 .text.compile_trailer_period
                0x000000000800211a        0xc build/py/compile.o
 .text.compile_const_object
                0x0000000008002126        0x8 build/py/compile.o
 .text.close_over_variables_etc
                0x000000000800212e       0xa6 build/py/compile.o
 .text.compile_funcdef_lambdef
                0x00000000080021d4       0x50 build/py/compile.o
 .text.compile_lambdef
                0x0000000008002224       0x2a build/py/compile.o
 .text.compile_funcdef_helper
                0x000000000800224e       0x2a build/py/compile.o
 .text.compile_increase_except_level
                0x0000000008002278       0x1e build/py/compile.o
 .text.compile_decrease_except_level
                0x0000000008002296        0xc build/py/compile.o
 .text.do_import_name
                0x00000000080022a2       0xec build/py/compile.o
 .text.compile_error_set_line
                0x000000000800238e       0x12 build/py/compile.o
 .text.compile_syntax_error
                0x00000000080023a0       0x28 build/py/compile.o
 .text.compile_star_expr
                0x00000000080023c8        0xc build/py/compile.o
 .text.compile_break_cont_stmt
                0x00000000080023d4       0x34 build/py/compile.o
 .text.compile_load_id
                0x0000000008002408       0x24 build/py/compile.o
 .text.compile_store_id
                0x000000000800242c       0x24 build/py/compile.o
 .text.compile_funcdef
                0x0000000008002450       0x18 build/py/compile.o
 .text.compile_import_from
                0x0000000008002468      0x10e build/py/compile.o
 .text.compile_dotted_as_name
                0x0000000008002576       0x2c build/py/compile.o
 *fill*         0x00000000080025a2        0x2 
 .text.compile_delete_id
                0x00000000080025a4       0x24 build/py/compile.o
 .text.compile_node
                0x00000000080025c8       0x70 build/py/compile.o
 .text.c_assign
                0x0000000008002638      0x164 build/py/compile.o
 .text.c_assign_tuple
                0x000000000800279c       0x80 build/py/compile.o
 .text.c_if_cond
                0x000000000800281c       0xf6 build/py/compile.o
 .text.compile_scope_comp_iter
                0x0000000008002912       0xac build/py/compile.o
 *fill*         0x00000000080029be        0x2 
 .text.compile_scope
                0x00000000080029c0      0x1b8 build/py/compile.o
 .text.compile_yield_expr
                0x0000000008002b78       0x6c build/py/compile.o
 .text.compile_dictorsetmaker_item
                0x0000000008002be4       0x18 build/py/compile.o
 .text.compile_trailer_bracket
                0x0000000008002bfc       0x16 build/py/compile.o
 .text.compile_while_stmt
                0x0000000008002c12       0x82 build/py/compile.o
 .text.compile_yield_stmt
                0x0000000008002c94       0x14 build/py/compile.o
 .text.compile_return_stmt
                0x0000000008002ca8       0x20 build/py/compile.o
 .text.c_del_stmt
                0x0000000008002cc8       0xe8 build/py/compile.o
 .text.compile_generic_tuple
                0x0000000008002db0       0x2e build/py/compile.o
 .text.compile_generic_all_nodes
                0x0000000008002dde       0x3c build/py/compile.o
 .text.compile_power
                0x0000000008002e1a       0x14 build/py/compile.o
 .text.compile_if_stmt
                0x0000000008002e2e       0xcc build/py/compile.o
 .text.compile_comprehension
                0x0000000008002efa       0x4c build/py/compile.o
 .text.compile_atom_paren
                0x0000000008002f46       0x32 build/py/compile.o
 .text.compile_atom_bracket
                0x0000000008002f78       0x60 build/py/compile.o
 .text.compile_trailer_paren_helper
                0x0000000008002fd8      0x124 build/py/compile.o
 .text.compile_classdef_helper
                0x00000000080030fc       0x50 build/py/compile.o
 .text.compile_classdef
                0x000000000800314c       0x18 build/py/compile.o
 .text.compile_trailer_paren
                0x0000000008003164        0xa build/py/compile.o
 *fill*         0x000000000800316e        0x2 
 .text.compile_decorated
                0x0000000008003170       0xe4 build/py/compile.o
 .text.compile_funcdef_lambdef_param
                0x0000000008003254       0xa8 build/py/compile.o
 .text.compile_atom_expr_normal
                0x00000000080032fc      0x11c build/py/compile.o
 .text.compile_term
                0x0000000008003418       0x3c build/py/compile.o
 .text.compile_binary_op
                0x0000000008003454       0x3c build/py/compile.o
 .text.compile_expr_stmt
                0x0000000008003490      0x10e build/py/compile.o
 .text.compile_factor_2
                0x000000000800359e       0x28 build/py/compile.o
 .text.compile_not_test_2
                0x00000000080035c6       0x16 build/py/compile.o
 .text.compile_or_and_test
                0x00000000080035dc       0x56 build/py/compile.o
 .text.compile_comparison
                0x0000000008003632       0xca build/py/compile.o
 .text.compile_test_if_expr
                0x00000000080036fc       0x58 build/py/compile.o
 .text.compile_for_stmt
                0x0000000008003754      0x274 build/py/compile.o
 .text.compile_with_stmt_helper
                0x00000000080039c8       0x82 build/py/compile.o
 .text.compile_with_stmt
                0x0000000008003a4a       0x22 build/py/compile.o
 .text.compile_try_except
                0x0000000008003a6c      0x180 build/py/compile.o
 .text.compile_try_finally
                0x0000000008003bec       0x70 build/py/compile.o
 .text.compile_try_stmt
                0x0000000008003c5c       0x68 build/py/compile.o
 .text.compile_raise_stmt
                0x0000000008003cc4       0x3c build/py/compile.o
 .text.compile_assert_stmt
                0x0000000008003d00       0x58 build/py/compile.o
 .text.compile_global_nonlocal_stmt
                0x0000000008003d58       0xc8 build/py/compile.o
 .text.compile_scope_func_lambda_param.constprop.0
                0x0000000008003e20       0x9c build/py/compile.o
 .text.compile_scope_func_param
                0x0000000008003ebc        0x8 build/py/compile.o
 .text.compile_scope_lambda_param
                0x0000000008003ec4        0x8 build/py/compile.o
 .text.compile_atom_brace
                0x0000000008003ecc       0xc8 build/py/compile.o
 .text.mp_compile
                0x0000000008003f94      0x324 build/py/compile.o
                0x0000000008003f94                mp_compile
 .text.strictly_equal
                0x00000000080042b8       0x64 build/py/emitcommon.o
 .text.mp_emit_common_use_qstr
                0x000000000800431c       0x2e build/py/emitcommon.o
                0x000000000800431c                mp_emit_common_use_qstr
 .text.mp_emit_common_use_const_obj
                0x000000000800434a       0x34 build/py/emitcommon.o
                0x000000000800434a                mp_emit_common_use_const_obj
 .text.mp_emit_common_get_id_for_modification
                0x000000000800437e       0x1e build/py/emitcommon.o
                0x000000000800437e                mp_emit_common_get_id_for_modification
 .text.mp_emit_common_id_op
                0x000000000800439c       0x4a build/py/emitcommon.o
                0x000000000800439c                mp_emit_common_id_op
 .text.emit_get_cur_to_write_code_info
                0x00000000080043e6       0x18 build/py/emitbc.o
 .text.emit_get_cur_to_write_bytecode
                0x00000000080043fe       0x24 build/py/emitbc.o
 .text.emit_write_bytecode_raw_byte
                0x0000000008004422        0xe build/py/emitbc.o
 .text.emit_bc_new
                0x0000000008004430        0xe build/py/emitbc.o
                0x0000000008004430                emit_bc_new
 .text.emit_bc_set_max_num_labels
                0x000000000800443e       0x10 build/py/emitbc.o
                0x000000000800443e                emit_bc_set_max_num_labels
 .text.emit_bc_free
                0x000000000800444e       0x14 build/py/emitbc.o
                0x000000000800444e                emit_bc_free
 *fill*         0x0000000008004462        0x2 
 .text.mp_emit_bc_start_pass
                0x0000000008004464      0x17c build/py/emitbc.o
                0x0000000008004464                mp_emit_bc_start_pass
 .text.mp_emit_bc_end_pass
                0x00000000080045e0       0xa0 build/py/emitbc.o
                0x00000000080045e0                mp_emit_bc_end_pass
 .text.mp_emit_bc_adjust_stack_size
                0x0000000008004680       0x18 build/py/emitbc.o
                0x0000000008004680                mp_emit_bc_adjust_stack_size
 .text.emit_write_bytecode_byte
                0x0000000008004698       0x12 build/py/emitbc.o
 *fill*         0x00000000080046aa        0x2 
 .text.emit_write_bytecode_byte_uint
                0x00000000080046ac       0x1c build/py/emitbc.o
 .text.emit_write_bytecode_byte_qstr
                0x00000000080046c8       0x20 build/py/emitbc.o
 .text.mp_emit_bc_load_global
                0x00000000080046e8        0xc build/py/emitbc.o
                0x00000000080046e8                mp_emit_bc_load_global
 .text.mp_emit_bc_store_global
                0x00000000080046f4        0xe build/py/emitbc.o
                0x00000000080046f4                mp_emit_bc_store_global
 .text.mp_emit_bc_delete_global
                0x0000000008004702        0xc build/py/emitbc.o
                0x0000000008004702                mp_emit_bc_delete_global
 .text.emit_write_bytecode_byte_child
                0x000000000800470e       0x20 build/py/emitbc.o
 .text.mp_emit_bc_delete_local
                0x000000000800472e        0xe build/py/emitbc.o
                0x000000000800472e                mp_emit_bc_delete_local
 .text.emit_bc_call_function_method_helper
                0x000000000800473c       0x20 build/py/emitbc.o
 .text.mp_emit_bc_load_local
                0x000000000800475c       0x28 build/py/emitbc.o
                0x000000000800475c                mp_emit_bc_load_local
 .text.mp_emit_bc_store_local
                0x0000000008004784       0x2c build/py/emitbc.o
                0x0000000008004784                mp_emit_bc_store_local
 .text.emit_write_bytecode_byte_label
                0x00000000080047b0       0x8c build/py/emitbc.o
 .text.mp_emit_bc_set_source_line
                0x000000000800483c        0x2 build/py/emitbc.o
                0x000000000800483c                mp_emit_bc_set_source_line
 .text.mp_emit_bc_label_assign
                0x000000000800483e       0x1c build/py/emitbc.o
                0x000000000800483e                mp_emit_bc_label_assign
 .text.mp_emit_bc_import
                0x000000000800485a       0x2e build/py/emitbc.o
                0x000000000800485a                mp_emit_bc_import
 .text.mp_emit_bc_load_const_tok
                0x0000000008004888       0x34 build/py/emitbc.o
                0x0000000008004888                mp_emit_bc_load_const_tok
 .text.mp_emit_bc_load_const_small_int
                0x00000000080048bc       0x88 build/py/emitbc.o
                0x00000000080048bc                mp_emit_bc_load_const_small_int
 .text.mp_emit_bc_load_const_str
                0x0000000008004944        0xa build/py/emitbc.o
                0x0000000008004944                mp_emit_bc_load_const_str
 .text.mp_emit_bc_load_const_obj
                0x000000000800494e       0x1a build/py/emitbc.o
                0x000000000800494e                mp_emit_bc_load_const_obj
 .text.mp_emit_bc_load_null
                0x0000000008004968        0x8 build/py/emitbc.o
                0x0000000008004968                mp_emit_bc_load_null
 .text.mp_emit_bc_load_method
                0x0000000008004970       0x16 build/py/emitbc.o
                0x0000000008004970                mp_emit_bc_load_method
 .text.mp_emit_bc_load_build_class
                0x0000000008004986        0x8 build/py/emitbc.o
                0x0000000008004986                mp_emit_bc_load_build_class
 .text.mp_emit_bc_dup_top
                0x000000000800498e        0x8 build/py/emitbc.o
                0x000000000800498e                mp_emit_bc_dup_top
 .text.mp_emit_bc_dup_top_two
                0x0000000008004996        0x8 build/py/emitbc.o
                0x0000000008004996                mp_emit_bc_dup_top_two
 .text.mp_emit_bc_pop_top
                0x000000000800499e        0xa build/py/emitbc.o
                0x000000000800499e                mp_emit_bc_pop_top
 .text.mp_emit_bc_rot_two
                0x00000000080049a8        0x8 build/py/emitbc.o
                0x00000000080049a8                mp_emit_bc_rot_two
 .text.mp_emit_bc_attr
                0x00000000080049b0       0x30 build/py/emitbc.o
                0x00000000080049b0                mp_emit_bc_attr
 .text.mp_emit_bc_rot_three
                0x00000000080049e0        0x8 build/py/emitbc.o
                0x00000000080049e0                mp_emit_bc_rot_three
 .text.mp_emit_bc_subscr
                0x00000000080049e8       0x2c build/py/emitbc.o
                0x00000000080049e8                mp_emit_bc_subscr
 .text.mp_emit_bc_jump
                0x0000000008004a14       0x14 build/py/emitbc.o
                0x0000000008004a14                mp_emit_bc_jump
 .text.mp_emit_bc_pop_jump_if
                0x0000000008004a28       0x12 build/py/emitbc.o
                0x0000000008004a28                mp_emit_bc_pop_jump_if
 .text.mp_emit_bc_jump_if_or_pop
                0x0000000008004a3a       0x12 build/py/emitbc.o
                0x0000000008004a3a                mp_emit_bc_jump_if_or_pop
 .text.mp_emit_bc_unwind_jump
                0x0000000008004a4c       0x5e build/py/emitbc.o
                0x0000000008004a4c                mp_emit_bc_unwind_jump
 .text.mp_emit_bc_setup_block
                0x0000000008004aaa       0x14 build/py/emitbc.o
                0x0000000008004aaa                mp_emit_bc_setup_block
 .text.mp_emit_bc_with_cleanup
                0x0000000008004abe       0x2a build/py/emitbc.o
                0x0000000008004abe                mp_emit_bc_with_cleanup
 .text.mp_emit_bc_end_finally
                0x0000000008004ae8        0xa build/py/emitbc.o
                0x0000000008004ae8                mp_emit_bc_end_finally
 .text.mp_emit_bc_get_iter
                0x0000000008004af2       0x10 build/py/emitbc.o
                0x0000000008004af2                mp_emit_bc_get_iter
 .text.mp_emit_bc_for_iter
                0x0000000008004b02        0xa build/py/emitbc.o
                0x0000000008004b02                mp_emit_bc_for_iter
 .text.mp_emit_bc_for_iter_end
                0x0000000008004b0c        0x8 build/py/emitbc.o
                0x0000000008004b0c                mp_emit_bc_for_iter_end
 .text.mp_emit_bc_pop_except_jump
                0x0000000008004b14       0x14 build/py/emitbc.o
                0x0000000008004b14                mp_emit_bc_pop_except_jump
 .text.mp_emit_bc_unary_op
                0x0000000008004b28        0xc build/py/emitbc.o
                0x0000000008004b28                mp_emit_bc_unary_op
 .text.mp_emit_bc_binary_op
                0x0000000008004b34       0x3a build/py/emitbc.o
                0x0000000008004b34                mp_emit_bc_binary_op
 .text.mp_emit_bc_build
                0x0000000008004b6e       0x16 build/py/emitbc.o
                0x0000000008004b6e                mp_emit_bc_build
 .text.mp_emit_bc_store_map
                0x0000000008004b84        0xa build/py/emitbc.o
                0x0000000008004b84                mp_emit_bc_store_map
 .text.mp_emit_bc_store_comp
                0x0000000008004b8e       0x14 build/py/emitbc.o
                0x0000000008004b8e                mp_emit_bc_store_comp
 .text.mp_emit_bc_unpack_sequence
                0x0000000008004ba2        0xa build/py/emitbc.o
                0x0000000008004ba2                mp_emit_bc_unpack_sequence
 .text.mp_emit_bc_unpack_ex
                0x0000000008004bac       0x12 build/py/emitbc.o
                0x0000000008004bac                mp_emit_bc_unpack_ex
 .text.mp_emit_bc_make_function
                0x0000000008004bbe       0x1a build/py/emitbc.o
                0x0000000008004bbe                mp_emit_bc_make_function
 .text.mp_emit_bc_make_closure
                0x0000000008004bd8       0x2c build/py/emitbc.o
                0x0000000008004bd8                mp_emit_bc_make_closure
 .text.mp_emit_bc_call_function
                0x0000000008004c04       0x16 build/py/emitbc.o
                0x0000000008004c04                mp_emit_bc_call_function
 .text.mp_emit_bc_call_method
                0x0000000008004c1a       0x18 build/py/emitbc.o
                0x0000000008004c1a                mp_emit_bc_call_method
 .text.mp_emit_bc_return_value
                0x0000000008004c32       0x14 build/py/emitbc.o
                0x0000000008004c32                mp_emit_bc_return_value
 .text.mp_emit_bc_raise_varargs
                0x0000000008004c46       0x16 build/py/emitbc.o
                0x0000000008004c46                mp_emit_bc_raise_varargs
 .text.mp_emit_bc_yield
                0x0000000008004c5c       0x1c build/py/emitbc.o
                0x0000000008004c5c                mp_emit_bc_yield
 .text.mp_emit_bc_start_except_handler
                0x0000000008004c78        0x6 build/py/emitbc.o
                0x0000000008004c78                mp_emit_bc_start_except_handler
 .text.mp_emit_bc_end_except_handler
                0x0000000008004c7e        0x8 build/py/emitbc.o
                0x0000000008004c7e                mp_emit_bc_end_except_handler
 .text.mp_parse_num_base
                0x0000000008004c86       0x76 build/py/parsenumbase.o
                0x0000000008004c86                mp_parse_num_base
 .text.raise_exc
                0x0000000008004cfc       0x20 build/py/parsenum.o
 .text.mp_parse_num_integer
                0x0000000008004d1c       0xf8 build/py/parsenum.o
                0x0000000008004d1c                mp_parse_num_integer
 .text.mp_parse_num_float
                0x0000000008004e14       0x1c build/py/parsenum.o
                0x0000000008004e14                mp_parse_num_float
 .text.mp_emit_glue_new_raw_code
                0x0000000008004e30       0x14 build/py/emitglue.o
                0x0000000008004e30                mp_emit_glue_new_raw_code
 .text.mp_emit_glue_assign_bytecode
                0x0000000008004e44       0x20 build/py/emitglue.o
                0x0000000008004e44                mp_emit_glue_assign_bytecode
 .text.mp_make_function_from_raw_code
                0x0000000008004e64       0x20 build/py/emitglue.o
                0x0000000008004e64                mp_make_function_from_raw_code
 .text.mp_make_closure_from_raw_code
                0x0000000008004e84       0x24 build/py/emitglue.o
                0x0000000008004e84                mp_make_closure_from_raw_code
 .text.type_get_iternext
                0x0000000008004ea8       0x38 build/py/runtime.o
 .text.mp_init  0x0000000008004ee0       0x38 build/py/runtime.o
                0x0000000008004ee0                mp_init
 .text.mp_deinit
                0x0000000008004f18        0x2 build/py/runtime.o
                0x0000000008004f18                mp_deinit
 *fill*         0x0000000008004f1a        0x2 
 .text.mp_load_build_class
                0x0000000008004f1c        0x8 build/py/runtime.o
                0x0000000008004f1c                mp_load_build_class
 .text.mp_store_name
                0x0000000008004f24       0x14 build/py/runtime.o
                0x0000000008004f24                mp_store_name
 .text.mp_delete_name
                0x0000000008004f38       0x14 build/py/runtime.o
                0x0000000008004f38                mp_delete_name
 .text.mp_store_global
                0x0000000008004f4c       0x14 build/py/runtime.o
                0x0000000008004f4c                mp_store_global
 .text.mp_delete_global
                0x0000000008004f60       0x14 build/py/runtime.o
                0x0000000008004f60                mp_delete_global
 .text.mp_convert_member_lookup
                0x0000000008004f74       0x54 build/py/runtime.o
                0x0000000008004f74                mp_convert_member_lookup
 .text.mp_load_method_maybe
                0x0000000008004fc8       0x7c build/py/runtime.o
                0x0000000008004fc8                mp_load_method_maybe
 .text.mp_load_method_protected
                0x0000000008005044       0x44 build/py/runtime.o
                0x0000000008005044                mp_load_method_protected
 .text.mp_import_name
                0x0000000008005088       0x22 build/py/runtime.o
                0x0000000008005088                mp_import_name
 .text.mp_import_all
                0x00000000080050aa       0x3c build/py/runtime.o
                0x00000000080050aa                mp_import_all
 .text.mp_raise_msg
                0x00000000080050e6       0x12 build/py/runtime.o
                0x00000000080050e6                mp_raise_msg
 .text.mp_load_global
                0x00000000080050f8       0x44 build/py/runtime.o
                0x00000000080050f8                mp_load_global
 .text.mp_load_name
                0x000000000800513c       0x30 build/py/runtime.o
                0x000000000800513c                mp_load_name
 .text.mp_load_method
                0x000000000800516c       0x20 build/py/runtime.o
                0x000000000800516c                mp_load_method
 .text.mp_load_attr
                0x000000000800518c       0x1a build/py/runtime.o
                0x000000000800518c                mp_load_attr
 *fill*         0x00000000080051a6        0x2 
 .text.mp_store_attr
                0x00000000080051a8       0x3c build/py/runtime.o
                0x00000000080051a8                mp_store_attr
 .text.mp_raise_msg_varg
                0x00000000080051e4       0x14 build/py/runtime.o
                0x00000000080051e4                mp_raise_msg_varg
 .text.mp_import_from
                0x00000000080051f8       0xb4 build/py/runtime.o
                0x00000000080051f8                mp_import_from
 .text.m_malloc_fail
                0x00000000080052ac       0x28 build/py/runtime.o
                0x00000000080052ac                m_malloc_fail
 .text.mp_raise_ValueError
                0x00000000080052d4       0x10 build/py/runtime.o
                0x00000000080052d4                mp_raise_ValueError
 .text.mp_raise_TypeError
                0x00000000080052e4       0x10 build/py/runtime.o
                0x00000000080052e4                mp_raise_TypeError
 .text.mp_unary_op
                0x00000000080052f4      0x108 build/py/runtime.o
                0x00000000080052f4                mp_unary_op
 .text.mp_call_function_n_kw
                0x00000000080053fc       0x34 build/py/runtime.o
                0x00000000080053fc                mp_call_function_n_kw
 .text.mp_call_function_0
                0x0000000008005430        0xa build/py/runtime.o
                0x0000000008005430                mp_call_function_0
 *fill*         0x000000000800543a        0x2 
 .text.mp_parse_compile_execute
                0x000000000800543c       0x64 build/py/runtime.o
                0x000000000800543c                mp_parse_compile_execute
 .text.mp_call_function_1
                0x00000000080054a0       0x14 build/py/runtime.o
                0x00000000080054a0                mp_call_function_1
 .text.mp_call_method_n_kw
                0x00000000080054b4       0x20 build/py/runtime.o
                0x00000000080054b4                mp_call_method_n_kw
 .text.mp_make_raise_obj
                0x00000000080054d4       0x38 build/py/runtime.o
                0x00000000080054d4                mp_make_raise_obj
 .text.mp_resume
                0x000000000800550c      0x108 build/py/runtime.o
                0x000000000800550c                mp_resume
 .text.mp_getiter
                0x0000000008005614       0x84 build/py/runtime.o
                0x0000000008005614                mp_getiter
 .text.mp_iternext_allow_raise
                0x0000000008005698       0x50 build/py/runtime.o
                0x0000000008005698                mp_iternext_allow_raise
 .text.mp_iternext
                0x00000000080056e8       0x84 build/py/runtime.o
                0x00000000080056e8                mp_iternext
 .text.mp_call_method_n_kw_var
                0x000000000800576c      0x29c build/py/runtime.o
                0x000000000800576c                mp_call_method_n_kw_var
 .text.mp_unpack_sequence
                0x0000000008005a08       0x88 build/py/runtime.o
                0x0000000008005a08                mp_unpack_sequence
 .text.mp_unpack_ex
                0x0000000008005a90      0x104 build/py/runtime.o
                0x0000000008005a90                mp_unpack_ex
 .text.mp_binary_op
                0x0000000008005b94      0x288 build/py/runtime.o
                0x0000000008005b94                mp_binary_op
 .text.mp_raise_NotImplementedError
                0x0000000008005e1c       0x10 build/py/runtime.o
                0x0000000008005e1c                mp_raise_NotImplementedError
 .text.mp_raise_type_arg
                0x0000000008005e2c       0x12 build/py/runtime.o
                0x0000000008005e2c                mp_raise_type_arg
 *fill*         0x0000000008005e3e        0x2 
 .text.mp_raise_StopIteration
                0x0000000008005e40       0x14 build/py/runtime.o
                0x0000000008005e40                mp_raise_StopIteration
 .text.mp_raise_OSError
                0x0000000008005e54       0x14 build/py/runtime.o
                0x0000000008005e54                mp_raise_OSError
 .text.mp_handle_pending
                0x0000000008005e68       0x20 build/py/scheduler.o
                0x0000000008005e68                mp_handle_pending
 .text.mp_arg_error_terse_mismatch
                0x0000000008005e88        0xc build/py/argcheck.o
                0x0000000008005e88                mp_arg_error_terse_mismatch
 .text.mp_arg_check_num_sig
                0x0000000008005e94       0x26 build/py/argcheck.o
                0x0000000008005e94                mp_arg_check_num_sig
 .text.mp_arg_parse_all
                0x0000000008005eba       0x9a build/py/argcheck.o
                0x0000000008005eba                mp_arg_parse_all
 .text.mp_map_init
                0x0000000008005f54       0x1a build/py/map.o
                0x0000000008005f54                mp_map_init
 .text.mp_map_init_fixed_table
                0x0000000008005f6e        0xe build/py/map.o
                0x0000000008005f6e                mp_map_init_fixed_table
 .text.mp_map_clear
                0x0000000008005f7c       0x24 build/py/map.o
                0x0000000008005f7c                mp_map_clear
 .text.mp_map_lookup
                0x0000000008005fa0      0x17c build/py/map.o
                0x0000000008005fa0                mp_map_lookup
 .text.mp_map_rehash
                0x000000000800611c       0x74 build/py/map.o
 .text.mp_identity
                0x0000000008006190        0x2 build/py/obj.o
                0x0000000008006190                mp_identity
 .text.mp_obj_malloc_helper
                0x0000000008006192        0xc build/py/obj.o
                0x0000000008006192                mp_obj_malloc_helper
 *fill*         0x000000000800619e        0x2 
 .text.mp_obj_get_type
                0x00000000080061a0       0x18 build/py/obj.o
                0x00000000080061a0                mp_obj_get_type
 .text.mp_obj_get_type_str
                0x00000000080061b8       0x10 build/py/obj.o
                0x00000000080061b8                mp_obj_get_type_str
 .text.mp_obj_print_helper
                0x00000000080061c8       0x30 build/py/obj.o
                0x00000000080061c8                mp_obj_print_helper
 .text.mp_obj_print_exception
                0x00000000080061f8       0x90 build/py/obj.o
                0x00000000080061f8                mp_obj_print_exception
 .text.mp_obj_is_callable
                0x0000000008006288       0x30 build/py/obj.o
                0x0000000008006288                mp_obj_is_callable
 .text.mp_obj_get_int
                0x00000000080062b8       0x3c build/py/obj.o
                0x00000000080062b8                mp_obj_get_int
 .text.mp_obj_get_int_truncated
                0x00000000080062f4       0x1c build/py/obj.o
                0x00000000080062f4                mp_obj_get_int_truncated
 .text.mp_obj_get_int_maybe
                0x0000000008006310       0x40 build/py/obj.o
                0x0000000008006310                mp_obj_get_int_maybe
 .text.mp_obj_get_array
                0x0000000008006350       0x38 build/py/obj.o
                0x0000000008006350                mp_obj_get_array
 .text.mp_get_index
                0x0000000008006388       0x60 build/py/obj.o
                0x0000000008006388                mp_get_index
 .text.mp_obj_id
                0x00000000080063e8       0x18 build/py/obj.o
                0x00000000080063e8                mp_obj_id
 .text.mp_obj_len_maybe
                0x0000000008006400       0x54 build/py/obj.o
                0x0000000008006400                mp_obj_len_maybe
 .text.mp_obj_is_true
                0x0000000008006454       0x52 build/py/obj.o
                0x0000000008006454                mp_obj_is_true
 *fill*         0x00000000080064a6        0x2 
 .text.mp_obj_equal_not_equal
                0x00000000080064a8       0xf4 build/py/obj.o
                0x00000000080064a8                mp_obj_equal_not_equal
 .text.mp_obj_equal
                0x000000000800659c       0x14 build/py/obj.o
                0x000000000800659c                mp_obj_equal
 .text.mp_obj_len
                0x00000000080065b0       0x14 build/py/obj.o
                0x00000000080065b0                mp_obj_len
 .text.mp_obj_subscr
                0x00000000080065c4       0x3c build/py/obj.o
                0x00000000080065c4                mp_obj_subscr
 .text.mp_get_buffer
                0x0000000008006600       0x20 build/py/obj.o
                0x0000000008006600                mp_get_buffer
 .text.mp_get_buffer_raise
                0x0000000008006620       0x14 build/py/obj.o
                0x0000000008006620                mp_get_buffer_raise
 .text.mp_generic_unary_op
                0x0000000008006634        0xe build/py/obj.o
                0x0000000008006634                mp_generic_unary_op
 .text.bool_binary_op
                0x0000000008006642       0x10 build/py/objbool.o
 .text.bool_unary_op
                0x0000000008006652       0x18 build/py/objbool.o
 *fill*         0x000000000800666a        0x2 
 .text.bool_print
                0x000000000800666c       0x14 build/py/objbool.o
 .text.bool_make_new
                0x0000000008006680       0x22 build/py/objbool.o
 .text.mp_call_method_self_n_kw
                0x00000000080066a2       0x6c build/py/objboundmeth.o
                0x00000000080066a2                mp_call_method_self_n_kw
 .text.bound_meth_call
                0x000000000800670e       0x16 build/py/objboundmeth.o
 .text.mp_obj_new_bound_meth
                0x0000000008006724       0x18 build/py/objboundmeth.o
                0x0000000008006724                mp_obj_new_bound_meth
 .text.mp_obj_new_cell
                0x000000000800673c       0x14 build/py/objcell.o
                0x000000000800673c                mp_obj_new_cell
 .text.closure_call
                0x0000000008006750       0x8e build/py/objclosure.o
 *fill*         0x00000000080067de        0x2 
 .text.mp_obj_new_closure
                0x00000000080067e0       0x34 build/py/objclosure.o
                0x00000000080067e0                mp_obj_new_closure
 .text.dict_view_getiter
                0x0000000008006814       0x1c build/py/objdict.o
 .text.dict_getiter
                0x0000000008006830       0x18 build/py/objdict.o
 .text.mp_ensure_not_fixed
                0x0000000008006848       0x10 build/py/objdict.o
 .text.dict_values
                0x0000000008006858       0x18 build/py/objdict.o
 .text.dict_get_helper
                0x0000000008006870       0x50 build/py/objdict.o
 .text.dict_setdefault
                0x00000000080068c0        0x6 build/py/objdict.o
 .text.dict_pop
                0x00000000080068c6        0x6 build/py/objdict.o
 .text.dict_get
                0x00000000080068cc        0x6 build/py/objdict.o
 .text.dict_clear
                0x00000000080068d2       0x12 build/py/objdict.o
 .text.dict_unary_op
                0x00000000080068e4       0x28 build/py/objdict.o
 .text.dict_iter_next
                0x000000000800690c       0x28 build/py/objdict.o
 .text.dict_view_it_iternext
                0x0000000008006934       0x36 build/py/objdict.o
 *fill*         0x000000000800696a        0x2 
 .text.dict_view_print
                0x000000000800696c       0x74 build/py/objdict.o
 .text.dict_print
                0x00000000080069e0       0x70 build/py/objdict.o
 .text.dict_popitem
                0x0000000008006a50       0x50 build/py/objdict.o
 .text.dict_binary_op
                0x0000000008006aa0       0x70 build/py/objdict.o
 .text.dict_view_binary_op
                0x0000000008006b10       0x1a build/py/objdict.o
 *fill*         0x0000000008006b2a        0x2 
 .text.dict_items
                0x0000000008006b2c       0x18 build/py/objdict.o
 .text.dict_keys
                0x0000000008006b44       0x18 build/py/objdict.o
 .text.mp_obj_is_dict_or_ordereddict
                0x0000000008006b5c       0x28 build/py/objdict.o
                0x0000000008006b5c                mp_obj_is_dict_or_ordereddict
 .text.dict_update
                0x0000000008006b84       0xe0 build/py/objdict.o
 .text.mp_obj_dict_get
                0x0000000008006c64       0x20 build/py/objdict.o
                0x0000000008006c64                mp_obj_dict_get
 .text.mp_obj_dict_init
                0x0000000008006c84       0x10 build/py/objdict.o
                0x0000000008006c84                mp_obj_dict_init
 .text.mp_obj_new_dict
                0x0000000008006c94       0x16 build/py/objdict.o
                0x0000000008006c94                mp_obj_new_dict
 .text.mp_obj_dict_make_new
                0x0000000008006caa       0x44 build/py/objdict.o
                0x0000000008006caa                mp_obj_dict_make_new
 .text.mp_obj_dict_copy
                0x0000000008006cee       0x30 build/py/objdict.o
                0x0000000008006cee                mp_obj_dict_copy
 .text.mp_obj_dict_len
                0x0000000008006d1e        0x6 build/py/objdict.o
                0x0000000008006d1e                mp_obj_dict_len
 .text.mp_obj_dict_store
                0x0000000008006d24       0x1c build/py/objdict.o
                0x0000000008006d24                mp_obj_dict_store
 .text.mp_obj_dict_delete
                0x0000000008006d40       0x18 build/py/objdict.o
                0x0000000008006d40                mp_obj_dict_delete
 .text.dict_subscr
                0x0000000008006d58       0x34 build/py/objdict.o
 .text.mp_obj_exception_make_new
                0x0000000008006d8c       0x68 build/py/objexcept.o
                0x0000000008006d8c                mp_obj_exception_make_new
 .text.decompress_error_text_maybe
                0x0000000008006df4       0x64 build/py/objexcept.o
 .text.mp_obj_exception_print
                0x0000000008006e58       0x78 build/py/objexcept.o
                0x0000000008006e58                mp_obj_exception_print
 .text.exc_add_strn
                0x0000000008006ed0       0x54 build/py/objexcept.o
 .text.mp_obj_is_native_exception_instance
                0x0000000008006f24       0x30 build/py/objexcept.o
                0x0000000008006f24                mp_obj_is_native_exception_instance
 .text.get_native_exception
                0x0000000008006f54       0x10 build/py/objexcept.o
 .text.mp_obj_exception_get_value
                0x0000000008006f64       0x1c build/py/objexcept.o
                0x0000000008006f64                mp_obj_exception_get_value
 .text.mp_obj_exception_attr
                0x0000000008006f80       0x3a build/py/objexcept.o
                0x0000000008006f80                mp_obj_exception_attr
 .text.mp_obj_new_exception
                0x0000000008006fba        0xa build/py/objexcept.o
                0x0000000008006fba                mp_obj_new_exception
 .text.mp_obj_new_exception_msg
                0x0000000008006fc4       0x48 build/py/objexcept.o
                0x0000000008006fc4                mp_obj_new_exception_msg
 .text.mp_obj_new_exception_msg_vlist
                0x000000000800700c       0xa8 build/py/objexcept.o
                0x000000000800700c                mp_obj_new_exception_msg_vlist
 .text.mp_obj_is_exception_type
                0x00000000080070b4       0x34 build/py/objexcept.o
                0x00000000080070b4                mp_obj_is_exception_type
 .text.mp_obj_is_exception_instance
                0x00000000080070e8        0xe build/py/objexcept.o
                0x00000000080070e8                mp_obj_is_exception_instance
 .text.mp_obj_exception_match
                0x00000000080070f6       0x20 build/py/objexcept.o
                0x00000000080070f6                mp_obj_exception_match
 .text.mp_obj_exception_add_traceback
                0x0000000008007116       0x5c build/py/objexcept.o
                0x0000000008007116                mp_obj_exception_add_traceback
 .text.mp_obj_exception_get_traceback
                0x0000000008007172       0x1a build/py/objexcept.o
                0x0000000008007172                mp_obj_exception_get_traceback
 .text.fun_builtin_0_call
                0x000000000800718c       0x16 build/py/objfun.o
 .text.fun_builtin_1_call
                0x00000000080071a2       0x1c build/py/objfun.o
 .text.fun_builtin_2_call
                0x00000000080071be       0x1e build/py/objfun.o
 .text.fun_builtin_3_call
                0x00000000080071dc       0x20 build/py/objfun.o
 .text.fun_bc_call
                0x00000000080071fc       0xcc build/py/objfun.o
 .text.fun_builtin_var_call
                0x00000000080072c8       0x44 build/py/objfun.o
 .text.mp_obj_fun_get_name
                0x000000000800730c       0x2c build/py/objfun.o
                0x000000000800730c                mp_obj_fun_get_name
 .text.mp_obj_new_fun_bc
                0x0000000008007338       0x5c build/py/objfun.o
                0x0000000008007338                mp_obj_new_fun_bc
 .text.gen_wrap_call
                0x0000000008007394       0x70 build/py/objgenerator.o
 .text.gen_instance_print
                0x0000000008007404       0x20 build/py/objgenerator.o
 .text.mp_obj_gen_resume
                0x0000000008007424       0xb0 build/py/objgenerator.o
                0x0000000008007424                mp_obj_gen_resume
 .text.gen_resume_and_raise
                0x00000000080074d4       0x3c build/py/objgenerator.o
 .text.gen_instance_throw
                0x0000000008007510       0x1e build/py/objgenerator.o
 .text.gen_instance_send
                0x000000000800752e        0x8 build/py/objgenerator.o
 .text.gen_instance_iternext
                0x0000000008007536        0xa build/py/objgenerator.o
 .text.gen_instance_close
                0x0000000008007540       0x4c build/py/objgenerator.o
 .text.it_iternext
                0x000000000800758c       0x54 build/py/objgetitemiter.o
 .text.mp_obj_new_getitem_iter
                0x00000000080075e0       0x1c build/py/objgetitemiter.o
                0x00000000080075e0                mp_obj_new_getitem_iter
 .text.mp_obj_int_unary_op
                0x00000000080075fc        0x4 build/py/objint.o
                0x00000000080075fc                mp_obj_int_unary_op
 .text.int_to_bytes
                0x0000000008007600       0x64 build/py/objint.o
 .text.mp_obj_int_make_new
                0x0000000008007664       0x94 build/py/objint.o
 .text.mp_int_format_size
                0x00000000080076f8       0x30 build/py/objint.o
                0x00000000080076f8                mp_int_format_size
 .text.mp_obj_int_formatted
                0x0000000008007728      0x104 build/py/objint.o
                0x0000000008007728                mp_obj_int_formatted
 .text.mp_obj_int_print
                0x000000000800782c       0x3c build/py/objint.o
                0x000000000800782c                mp_obj_int_print
 .text.mp_obj_int_sign
                0x0000000008007868       0x18 build/py/objint.o
                0x0000000008007868                mp_obj_int_sign
 .text.mp_obj_new_int_from_str_len
                0x0000000008007880       0x14 build/py/objint.o
                0x0000000008007880                mp_obj_new_int_from_str_len
 .text.mp_obj_new_int_from_ll
                0x0000000008007894       0x14 build/py/objint.o
                0x0000000008007894                mp_obj_new_int_from_ll
 .text.mp_obj_new_int_from_uint
                0x00000000080078a8       0x20 build/py/objint.o
                0x00000000080078a8                mp_obj_new_int_from_uint
 .text.int_from_bytes
                0x00000000080078c8       0x40 build/py/objint.o
 .text.mp_obj_new_int
                0x0000000008007908       0x24 build/py/objint.o
                0x0000000008007908                mp_obj_new_int
 .text.mp_obj_int_get_truncated
                0x000000000800792c        0x4 build/py/objint.o
                0x000000000800792c                mp_obj_int_get_truncated
 .text.mp_obj_int_get_checked
                0x0000000008007930        0x4 build/py/objint.o
                0x0000000008007930                mp_obj_int_get_checked
 .text.mp_obj_int_binary_op_extra_cases
                0x0000000008007934       0x64 build/py/objint.o
                0x0000000008007934                mp_obj_int_binary_op_extra_cases
 .text.mp_obj_int_binary_op
                0x0000000008007998        0x4 build/py/objint.o
                0x0000000008007998                mp_obj_int_binary_op
 .text.list_unary_op
                0x000000000800799c       0x22 build/py/objlist.o
 *fill*         0x00000000080079be        0x2 
 .text.list_getiter
                0x00000000080079c0       0x1c build/py/objlist.o
 .text.list_reverse
                0x00000000080079dc       0x2e build/py/objlist.o
 .text.list_it_iternext
                0x0000000008007a0a       0x1c build/py/objlist.o
 *fill*         0x0000000008007a26        0x2 
 .text.list_pop
                0x0000000008007a28       0x7c build/py/objlist.o
 .text.list_index
                0x0000000008007aa4       0x12 build/py/objlist.o
 .text.mp_obj_list_remove
                0x0000000008007ab6       0x20 build/py/objlist.o
                0x0000000008007ab6                mp_obj_list_remove
 .text.list_clear
                0x0000000008007ad6       0x22 build/py/objlist.o
 .text.mp_obj_list_append
                0x0000000008007af8       0x42 build/py/objlist.o
                0x0000000008007af8                mp_obj_list_append
 .text.list_extend_from_iter
                0x0000000008007b3a       0x22 build/py/objlist.o
 .text.list_insert
                0x0000000008007b5c       0x40 build/py/objlist.o
 .text.list_count
                0x0000000008007b9c        0xa build/py/objlist.o
 *fill*         0x0000000008007ba6        0x2 
 .text.list_print
                0x0000000008007ba8       0x4c build/py/objlist.o
 .text.mp_quicksort
                0x0000000008007bf4       0xc4 build/py/objlist.o
 .text.mp_obj_list_sort
                0x0000000008007cb8       0x50 build/py/objlist.o
                0x0000000008007cb8                mp_obj_list_sort
 .text.list_extend
                0x0000000008007d08       0x70 build/py/objlist.o
 .text.mp_obj_list_init
                0x0000000008007d78       0x38 build/py/objlist.o
                0x0000000008007d78                mp_obj_list_init
 .text.list_new
                0x0000000008007db0       0x16 build/py/objlist.o
 *fill*         0x0000000008007dc6        0x2 
 .text.list_binary_op
                0x0000000008007dc8       0xcc build/py/objlist.o
 .text.mp_obj_list_make_new
                0x0000000008007e94       0x2c build/py/objlist.o
                0x0000000008007e94                mp_obj_list_make_new
 .text.mp_obj_new_list
                0x0000000008007ec0       0x24 build/py/objlist.o
                0x0000000008007ec0                mp_obj_new_list
 .text.list_copy
                0x0000000008007ee4        0x8 build/py/objlist.o
 .text.mp_obj_list_get
                0x0000000008007eec        0xa build/py/objlist.o
                0x0000000008007eec                mp_obj_list_get
 .text.mp_obj_list_set_len
                0x0000000008007ef6        0x4 build/py/objlist.o
                0x0000000008007ef6                mp_obj_list_set_len
 .text.mp_obj_list_store
                0x0000000008007efa       0x1a build/py/objlist.o
                0x0000000008007efa                mp_obj_list_store
 .text.list_subscr
                0x0000000008007f14       0x36 build/py/objlist.o
 .text.map_iternext
                0x0000000008007f4a       0x4a build/py/objmap.o
 .text.map_make_new
                0x0000000008007f94       0x50 build/py/objmap.o
 .text.module_attr
                0x0000000008007fe4       0x3c build/py/objmodule.o
 .text.module_print
                0x0000000008008020       0x34 build/py/objmodule.o
 .text.mp_obj_new_module
                0x0000000008008054       0x44 build/py/objmodule.o
                0x0000000008008054                mp_obj_new_module
 .text.mp_module_get_loaded_or_builtin
                0x0000000008008098       0x2c build/py/objmodule.o
                0x0000000008008098                mp_module_get_loaded_or_builtin
 .text.object_make_new
                0x00000000080080c4       0x1a build/py/objobject.o
 .text.polymorph_it_iternext
                0x00000000080080de        0x4 build/py/objpolyiter.o
 *fill*         0x00000000080080e2        0x2 
 .text.none_print
                0x00000000080080e4        0xc build/py/objnone.o
 .text.range_it_iternext
                0x00000000080080f0       0x2c build/py/objrange.o
 .text.range_unary_op
                0x000000000800811c       0x3a build/py/objrange.o
 *fill*         0x0000000008008156        0x2 
 .text.range_getiter
                0x0000000008008158       0x1c build/py/objrange.o
 .text.range_print
                0x0000000008008174       0x3c build/py/objrange.o
 .text.range_make_new
                0x00000000080081b0       0x60 build/py/objrange.o
 .text.range_subscr
                0x0000000008008210       0x42 build/py/objrange.o
 *fill*         0x0000000008008252        0x2 
 .text.singleton_print
                0x0000000008008254        0xc build/py/objsingleton.o
 .text.arg_looks_integer
                0x0000000008008260       0x28 build/py/objstr.o
 .text.mp_obj_new_str_iterator
                0x0000000008008288       0x1c build/py/objstr.o
 .text.mp_obj_new_bytes_iterator
                0x00000000080082a4       0x1c build/py/objstr.o
 .text.bytes_it_iternext
                0x00000000080082c0       0x3a build/py/objstr.o
 *fill*         0x00000000080082fa        0x2 
 .text.terse_str_format_value_error
                0x00000000080082fc        0xc build/py/objstr.o
 .text.str_check_arg_type
                0x0000000008008308       0x1c build/py/objstr.o
 .text.mp_obj_new_str_type_from_vstr
                0x0000000008008324       0x68 build/py/objstr.o
 .text.str_caseconv
                0x000000000800838c       0x56 build/py/objstr.o
 *fill*         0x00000000080083e2        0x2 
 .text.str_lower
                0x00000000080083e4        0xc build/py/objstr.o
 .text.str_upper
                0x00000000080083f0        0xc build/py/objstr.o
 .text.str_join
                0x00000000080083fc      0x108 build/py/objstr.o
 .text.str_uni_istype
                0x0000000008008504       0x80 build/py/objstr.o
 .text.str_isspace
                0x0000000008008584        0xc build/py/objstr.o
 .text.str_isalpha
                0x0000000008008590        0xc build/py/objstr.o
 .text.str_isdigit
                0x000000000800859c        0xc build/py/objstr.o
 .text.str_isupper
                0x00000000080085a8        0xc build/py/objstr.o
 .text.str_islower
                0x00000000080085b4        0xc build/py/objstr.o
 .text.str_to_int
                0x00000000080085c0       0x30 build/py/objstr.o
 .text.mp_obj_str_get_buffer
                0x00000000080085f0       0x34 build/py/objstr.o
                0x00000000080085f0                mp_obj_str_get_buffer
 .text.mp_str_print_quoted
                0x0000000008008624       0xc8 build/py/objstr.o
                0x0000000008008624                mp_str_print_quoted
 .text.str_print
                0x00000000080086ec       0x6c build/py/objstr.o
 .text.find_subbytes
                0x0000000008008758       0x42 build/py/objstr.o
                0x0000000008008758                find_subbytes
 *fill*         0x000000000800879a        0x2 
 .text.mp_obj_str_binary_op
                0x000000000800879c      0x160 build/py/objstr.o
                0x000000000800879c                mp_obj_str_binary_op
 .text.str_replace
                0x00000000080088fc      0x152 build/py/objstr.o
 *fill*         0x0000000008008a4e        0x2 
 .text.str_finder
                0x0000000008008a50       0xcc build/py/objstr.o
 .text.str_find
                0x0000000008008b1c        0x8 build/py/objstr.o
 .text.str_rfind
                0x0000000008008b24        0xa build/py/objstr.o
 .text.str_index
                0x0000000008008b2e        0x8 build/py/objstr.o
 .text.str_rindex
                0x0000000008008b36        0xa build/py/objstr.o
 .text.mp_obj_new_str_copy
                0x0000000008008b40       0x38 build/py/objstr.o
                0x0000000008008b40                mp_obj_new_str_copy
 .text.mp_obj_new_str_via_qstr
                0x0000000008008b78        0xe build/py/objstr.o
                0x0000000008008b78                mp_obj_new_str_via_qstr
 *fill*         0x0000000008008b86        0x2 
 .text.bytes_subscr
                0x0000000008008b88       0x5c build/py/objstr.o
 .text.str_it_iternext
                0x0000000008008be4       0x3c build/py/objstr.o
 .text.mp_obj_new_str_from_vstr
                0x0000000008008c20        0xc build/py/objstr.o
                0x0000000008008c20                mp_obj_new_str_from_vstr
 .text.mp_obj_new_bytes_from_vstr
                0x0000000008008c2c        0xc build/py/objstr.o
                0x0000000008008c2c                mp_obj_new_bytes_from_vstr
 .text.mp_obj_new_str
                0x0000000008008c38       0x28 build/py/objstr.o
                0x0000000008008c38                mp_obj_new_str
 .text.mp_obj_str_make_new
                0x0000000008008c60       0xc4 build/py/objstr.o
                0x0000000008008c60                mp_obj_str_make_new
 .text.mp_obj_new_bytes
                0x0000000008008d24       0x10 build/py/objstr.o
                0x0000000008008d24                mp_obj_new_bytes
 .text.bytes_make_new
                0x0000000008008d34      0x114 build/py/objstr.o
 .text.mp_obj_new_str_of_type
                0x0000000008008e48       0x18 build/py/objstr.o
                0x0000000008008e48                mp_obj_new_str_of_type
 .text.str_uni_strip
                0x0000000008008e60      0x114 build/py/objstr.o
 .text.str_strip
                0x0000000008008f74        0xa build/py/objstr.o
 .text.str_lstrip
                0x0000000008008f7e        0xa build/py/objstr.o
 .text.str_rstrip
                0x0000000008008f88        0xa build/py/objstr.o
 .text.mp_obj_str_equal
                0x0000000008008f92       0x90 build/py/objstr.o
                0x0000000008008f92                mp_obj_str_equal
 *fill*         0x0000000008009022        0x2 
 .text.mp_obj_str_get_qstr
                0x0000000008009024       0x34 build/py/objstr.o
                0x0000000008009024                mp_obj_str_get_qstr
 .text.mp_obj_str_get_str
                0x0000000008009058       0x40 build/py/objstr.o
                0x0000000008009058                mp_obj_str_get_str
 .text.mp_obj_str_get_data
                0x0000000008009098       0x48 build/py/objstr.o
                0x0000000008009098                mp_obj_str_get_data
 .text.mp_obj_str_split
                0x00000000080090e0      0x140 build/py/objstr.o
                0x00000000080090e0                mp_obj_str_split
 .text.str_rsplit
                0x0000000008009220      0x10c build/py/objstr.o
 .text.str_startswith
                0x000000000800932c       0x72 build/py/objstr.o
 *fill*         0x000000000800939e        0x2 
 .text.str_endswith
                0x00000000080093a0       0x5c build/py/objstr.o
 .text.mp_obj_str_format_helper
                0x00000000080093fc      0x488 build/py/objstr.o
 .text.mp_obj_str_format
                0x0000000008009884       0x4c build/py/objstr.o
                0x0000000008009884                mp_obj_str_format
 .text.mp_obj_str_intern_checked
                0x00000000080098d0       0x14 build/py/objstr.o
                0x00000000080098d0                mp_obj_str_intern_checked
 .text.mp_obj_tuple_getiter
                0x00000000080098e4       0x1c build/py/objtuple.o
                0x00000000080098e4                mp_obj_tuple_getiter
 .text.tuple_it_iternext
                0x0000000008009900       0x1c build/py/objtuple.o
 .text.mp_obj_tuple_print
                0x000000000800991c       0x60 build/py/objtuple.o
                0x000000000800991c                mp_obj_tuple_print
 .text.tuple_index
                0x000000000800997c       0x10 build/py/objtuple.o
 .text.tuple_count
                0x000000000800998c        0xc build/py/objtuple.o
 .text.mp_obj_tuple_unary_op
                0x0000000008009998       0x54 build/py/objtuple.o
                0x0000000008009998                mp_obj_tuple_unary_op
 .text.mp_obj_tuple_subscr
                0x00000000080099ec       0x20 build/py/objtuple.o
                0x00000000080099ec                mp_obj_tuple_subscr
 .text.mp_obj_new_tuple
                0x0000000008009a0c       0x3c build/py/objtuple.o
                0x0000000008009a0c                mp_obj_new_tuple
 .text.mp_obj_tuple_make_new
                0x0000000008009a48       0x7c build/py/objtuple.o
 .text.mp_obj_tuple_binary_op
                0x0000000008009ac4       0xf4 build/py/objtuple.o
                0x0000000008009ac4                mp_obj_tuple_binary_op
 .text.mp_obj_tuple_get
                0x0000000008009bb8        0xa build/py/objtuple.o
                0x0000000008009bb8                mp_obj_tuple_get
 .text.mp_obj_tuple_del
                0x0000000008009bc2        0x4 build/py/objtuple.o
                0x0000000008009bc2                mp_obj_tuple_del
 *fill*         0x0000000008009bc6        0x2 
 .text.instance_count_native_bases
                0x0000000008009bc8       0x28 build/py/objtype.o
 .text.native_base_init_wrapper
                0x0000000008009bf0       0x36 build/py/objtype.o
 *fill*         0x0000000008009c26        0x2 
 .text.mp_obj_class_lookup
                0x0000000008009c28       0xac build/py/objtype.o
 .text.type_attr
                0x0000000008009cd4       0x60 build/py/objtype.o
 .text.super_attr
                0x0000000008009d34       0x64 build/py/objtype.o
 .text.type_call
                0x0000000008009d98       0x20 build/py/objtype.o
 .text.mp_obj_instance_getiter
                0x0000000008009db8       0x6a build/py/objtype.o
                0x0000000008009db8                mp_obj_instance_getiter
 .text.mp_obj_instance_attr
                0x0000000008009e22       0x8a build/py/objtype.o
 .text.type_print
                0x0000000008009eac        0xc build/py/objtype.o
 .text.static_class_method_make_new
                0x0000000008009eb8       0x20 build/py/objtype.o
 .text.super_make_new
                0x0000000008009ed8       0x3c build/py/objtype.o
 .text.instance_subscr
                0x0000000008009f14       0x74 build/py/objtype.o
 .text.instance_binary_op
                0x0000000008009f88       0x84 build/py/objtype.o
 .text.instance_unary_op
                0x000000000800a00c       0x9c build/py/objtype.o
 .text.super_print
                0x000000000800a0a8       0x40 build/py/objtype.o
 .text.instance_print
                0x000000000800a0e8       0x9c build/py/objtype.o
 .text.instance_get_buffer
                0x000000000800a184       0x4e build/py/objtype.o
 *fill*         0x000000000800a1d2        0x2 
 .text.mp_obj_instance_make_new
                0x000000000800a1d4      0x15c build/py/objtype.o
 .text.mp_obj_instance_call
                0x000000000800a330       0x5c build/py/objtype.o
                0x000000000800a330                mp_obj_instance_call
 .text.mp_obj_instance_is_callable
                0x000000000800a38c       0x32 build/py/objtype.o
                0x000000000800a38c                mp_obj_instance_is_callable
 *fill*         0x000000000800a3be        0x2 
 .text.mp_obj_new_type
                0x000000000800a3c0      0x16c build/py/objtype.o
                0x000000000800a3c0                mp_obj_new_type
 .text.type_make_new
                0x000000000800a52c       0x44 build/py/objtype.o
 .text.mp_load_super_method
                0x000000000800a570       0x24 build/py/objtype.o
                0x000000000800a570                mp_load_super_method
 .text.mp_obj_is_subclass_fast
                0x000000000800a594       0x30 build/py/objtype.o
                0x000000000800a594                mp_obj_is_subclass_fast
 .text.mp_obj_is_subclass
                0x000000000800a5c4       0x74 build/py/objtype.o
 .text.mp_builtin_issubclass
                0x000000000800a638       0x24 build/py/objtype.o
 .text.mp_builtin_isinstance
                0x000000000800a65c       0x12 build/py/objtype.o
 .text.mp_obj_cast_to_native_base
                0x000000000800a66e       0x20 build/py/objtype.o
                0x000000000800a66e                mp_obj_cast_to_native_base
 .text.zip_iternext
                0x000000000800a68e       0x48 build/py/objzip.o
 *fill*         0x000000000800a6d6        0x2 
 .text.zip_make_new
                0x000000000800a6d8       0x48 build/py/objzip.o
 .text.op_getitem
                0x000000000800a720       0x1e build/py/opmethods.o
 .text.op_setitem
                0x000000000800a73e       0x20 build/py/opmethods.o
 .text.op_delitem
                0x000000000800a75e       0x1e build/py/opmethods.o
 .text.mp_seq_multiply
                0x000000000800a77c       0x26 build/py/sequence.o
                0x000000000800a77c                mp_seq_multiply
 .text.mp_seq_cmp_bytes
                0x000000000800a7a2       0x68 build/py/sequence.o
                0x000000000800a7a2                mp_seq_cmp_bytes
 .text.mp_seq_cmp_objs
                0x000000000800a80a       0x96 build/py/sequence.o
                0x000000000800a80a                mp_seq_cmp_objs
 .text.mp_seq_index_obj
                0x000000000800a8a0       0x68 build/py/sequence.o
                0x000000000800a8a0                mp_seq_index_obj
 .text.mp_seq_count_obj
                0x000000000800a908       0x2e build/py/sequence.o
                0x000000000800a908                mp_seq_count_obj
 .text.mp_get_stream
                0x000000000800a936        0xc build/py/stream.o
 .text.stream_unbuffered_readline
                0x000000000800a942       0x8a build/py/stream.o
 .text.mp_stream_unbuffered_iter
                0x000000000800a9cc       0x1e build/py/stream.o
                0x000000000800a9cc                mp_stream_unbuffered_iter
 .text.mp_binary_set_int
                0x000000000800a9ea       0x2a build/py/binary.o
                0x000000000800a9ea                mp_binary_set_int
 .text.evaluate_relative_import
                0x000000000800aa14       0xd0 build/py/builtinimport.o
 .text.stat_path_or_frozen
                0x000000000800aae4       0x2c build/py/builtinimport.o
 .text.stat_dir_or_file
                0x000000000800ab10       0x30 build/py/builtinimport.o
 .text.do_load  0x000000000800ab40       0x9c build/py/builtinimport.o
 .text.mp_builtin___import___default
                0x000000000800abdc      0x160 build/py/builtinimport.o
                0x000000000800abdc                mp_builtin___import___default
 .text.mp_obj_is_package
                0x000000000800ad3c       0x18 build/py/builtinimport.o
                0x000000000800ad3c                mp_obj_is_package
 .text.eval_exec_helper
                0x000000000800ad54       0x74 build/py/builtinevex.o
 .text.mp_builtin_eval
                0x000000000800adc8        0x6 build/py/builtinevex.o
 .text.mp_builtin_exec
                0x000000000800adce        0x6 build/py/builtinevex.o
 .text.mp_builtin_globals
                0x000000000800add4        0xc build/py/modbuiltins.o
 .text.mp_builtin_locals
                0x000000000800ade0        0xc build/py/modbuiltins.o
 .text.mp_builtin___build_class__
                0x000000000800adec       0x6c build/py/modbuiltins.o
 .text.mp_builtin_abs
                0x000000000800ae58        0x8 build/py/modbuiltins.o
 .text.mp_builtin_hash
                0x000000000800ae60        0x8 build/py/modbuiltins.o
 .text.mp_builtin_iter
                0x000000000800ae68        0x6 build/py/modbuiltins.o
 .text.mp_builtin_all
                0x000000000800ae6e       0x24 build/py/modbuiltins.o
 .text.mp_builtin_any
                0x000000000800ae92       0x24 build/py/modbuiltins.o
 .text.mp_builtin_bin
                0x000000000800aeb6       0x1a build/py/modbuiltins.o
 .text.mp_builtin_hex
                0x000000000800aed0       0x1a build/py/modbuiltins.o
 .text.mp_builtin_oct
                0x000000000800aeea       0x1a build/py/modbuiltins.o
 .text.mp_builtin_callable
                0x000000000800af04       0x10 build/py/modbuiltins.o
 .text.mp_builtin_chr
                0x000000000800af14       0x28 build/py/modbuiltins.o
 .text.mp_builtin_divmod
                0x000000000800af3c        0xa build/py/modbuiltins.o
 .text.mp_builtin_sum
                0x000000000800af46       0x34 build/py/modbuiltins.o
 *fill*         0x000000000800af7a        0x2 
 .text.mp_builtin_ord
                0x000000000800af7c       0x28 build/py/modbuiltins.o
 .text.mp_builtin_pow
                0x000000000800afa4       0x20 build/py/modbuiltins.o
 .text.mp_builtin_print
                0x000000000800afc4       0x80 build/py/modbuiltins.o
 .text.mp_builtin_repr
                0x000000000800b044       0x24 build/py/modbuiltins.o
 .text.mp_builtin_round
                0x000000000800b068       0x34 build/py/modbuiltins.o
 .text.mp_builtin_sorted
                0x000000000800b09c       0x34 build/py/modbuiltins.o
 .text.mp_builtin_hasattr
                0x000000000800b0d0       0x24 build/py/modbuiltins.o
 .text.mp_builtin_getattr
                0x000000000800b0f4       0x3e build/py/modbuiltins.o
 .text.mp_builtin_setattr
                0x000000000800b132       0x1a build/py/modbuiltins.o
 .text.mp_builtin_next
                0x000000000800b14c       0x18 build/py/modbuiltins.o
 .text.mp_builtin___repl_print__
                0x000000000800b164       0x24 build/py/modbuiltins.o
 .text.mp_builtin_dir
                0x000000000800b188       0x6c build/py/modbuiltins.o
 .text.mp_micropython_heap_unlock
                0x000000000800b1f4       0x18 build/py/modmicropython.o
 .text.mp_micropython_heap_lock
                0x000000000800b20c        0xa build/py/modmicropython.o
 *fill*         0x000000000800b216        0x2 
 .text.mp_micropython_opt_level
                0x000000000800b218       0x20 build/py/modmicropython.o
 .text.mp_execute_bytecode
                0x000000000800b238      0xde8 build/py/vm.o
                0x000000000800b238                mp_execute_bytecode
 .text.mp_encode_uint
                0x000000000800c020       0x42 build/py/bc.o
                0x000000000800c020                mp_encode_uint
 .text.mp_decode_uint
                0x000000000800c062       0x1c build/py/bc.o
                0x000000000800c062                mp_decode_uint
 .text.mp_decode_uint_value
                0x000000000800c07e       0x10 build/py/bc.o
                0x000000000800c07e                mp_decode_uint_value
 .text.mp_decode_uint_skip
                0x000000000800c08e        0xa build/py/bc.o
                0x000000000800c08e                mp_decode_uint_skip
 .text.mp_setup_code_state
                0x000000000800c098      0x354 build/py/bc.o
                0x000000000800c098                mp_setup_code_state
 .text.str_startswith_word
                0x000000000800c3ec       0x32 build/py/repl.o
 *fill*         0x000000000800c41e        0x2 
 .text.test_qstr
                0x000000000800c420       0x30 build/py/repl.o
 .text.mp_repl_continue_with_input
                0x000000000800c450      0x164 build/py/repl.o
                0x000000000800c450                mp_repl_continue_with_input
 .text.mp_repl_autocomplete
                0x000000000800c5b4      0x21c build/py/repl.o
                0x000000000800c5b4                mp_repl_autocomplete
 .text.mp_small_int_mul_overflow
                0x000000000800c7d0       0x46 build/py/smallint.o
                0x000000000800c7d0                mp_small_int_mul_overflow
 .text.mp_small_int_modulo
                0x000000000800c816       0x1c build/py/smallint.o
                0x000000000800c816                mp_small_int_modulo
 .text.mp_small_int_floor_divide
                0x000000000800c832       0x1c build/py/smallint.o
                0x000000000800c832                mp_small_int_floor_divide
 *fill*         0x000000000800c84e        0x2 
 .text.mp_find_frozen_module
                0x000000000800c850       0x6c build/py/frozenmod.o
                0x000000000800c850                mp_find_frozen_module
 .text.Default_Handler
                0x000000000800c8bc        0x2 build/main.o
                0x000000000800c8bc                Default_Handler
 *fill*         0x000000000800c8be        0x2 
 .text.startup.main
                0x000000000800c8c0       0x38 build/main.o
                0x000000000800c8c0                main
 .text.gc_collect
                0x000000000800c8f8       0x24 build/main.o
                0x000000000800c8f8                gc_collect
 .text.mp_lexer_new_from_file
                0x000000000800c91c        0x8 build/main.o
                0x000000000800c91c                mp_lexer_new_from_file
 .text.mp_import_stat
                0x000000000800c924        0x4 build/main.o
                0x000000000800c924                mp_import_stat
 .text.nlr_jump_fail
                0x000000000800c928        0x2 build/main.o
                0x000000000800c928                nlr_jump_fail
 .text.stm32_init
                0x000000000800c92a       0x16 build/main.o
                0x000000000800c92a                stm32_init
 .text._start   0x000000000800c940       0x10 build/main.o
                0x000000000800c940                _start
 .text.Reset_Handler
                0x000000000800c950       0x54 build/main.o
                0x000000000800c950                Reset_Handler
 .text.mp_hal_stdin_rx_chr
                0x000000000800c9a4        0x4 build/uart_core.o
                0x000000000800c9a4                mp_hal_stdin_rx_chr
 .text.mp_hal_stdout_tx_strn
                0x000000000800c9a8        0x6 build/uart_core.o
                0x000000000800c9a8                mp_hal_stdout_tx_strn
 *fill*         0x000000000800c9ae        0x2 
 .text.NVICInit.part.0.isra.0
                0x000000000800c9b0       0x48 build/STdriver.o
 .text.RCCDeInit
                0x000000000800c9f8       0x48 build/STdriver.o
                0x000000000800c9f8                RCCDeInit
 .text.RCCGetClocksFreq
                0x000000000800ca40       0x88 build/STdriver.o
                0x000000000800ca40                RCCGetClocksFreq
 .text.RCCPCLK1Config
                0x000000000800cac8       0x14 build/STdriver.o
                0x000000000800cac8                RCCPCLK1Config
 .text.RCCPCLK2Config
                0x000000000800cadc       0x14 build/STdriver.o
                0x000000000800cadc                RCCPCLK2Config
 .text.RCCHCLKConfig
                0x000000000800caf0       0x14 build/STdriver.o
                0x000000000800caf0                RCCHCLKConfig
 .text.RCCSYSCLKConfig
                0x000000000800cb04       0x14 build/STdriver.o
                0x000000000800cb04                RCCSYSCLKConfig
 .text.FnClockConfigInit
                0x000000000800cb18       0x90 build/STdriver.o
                0x000000000800cb18                FnClockConfigInit
 .text.GPIOInit
                0x000000000800cba8       0x84 build/STdriver.o
                0x000000000800cba8                GPIOInit
 .text.FnGPIOInit
                0x000000000800cc2c       0x28 build/STdriver.o
                0x000000000800cc2c                FnGPIOInit
 .text.USARTInit
                0x000000000800cc54       0xac build/STdriver.o
                0x000000000800cc54                USARTInit
 .text.FnSerialInit
                0x000000000800cd00      0x100 build/STdriver.o
                0x000000000800cd00                FnSerialInit
 .text.STprint  0x000000000800ce00       0x1c build/STdriver.o
                0x000000000800ce00                STprint
 .text.STReceive
                0x000000000800ce1c       0x1c build/STdriver.o
                0x000000000800ce1c                STReceive
 .text.STBlink  0x000000000800ce38       0x3c build/STdriver.o
                0x000000000800ce38                STBlink
 .text.strn_print_strn
                0x000000000800ce74       0x22 build/shared/libc/printf.o
 *fill*         0x000000000800ce96        0x2 
 .text.printf   0x000000000800ce98       0x20 build/shared/libc/printf.o
                0x000000000800ce98                printf
 .text.vsnprintf
                0x000000000800ceb8       0x34 build/shared/libc/printf.o
                0x000000000800ceb8                vsnprintf
 .text.snprintf
                0x000000000800ceec       0x1a build/shared/libc/printf.o
                0x000000000800ceec                snprintf
 *fill*         0x000000000800cf06        0x2 
 .text.mp_hal_move_cursor_back
                0x000000000800cf08       0x44 build/shared/readline/readline.o
 .text.readline_init
                0x000000000800cf4c       0x24 build/shared/readline/readline.o
                0x000000000800cf4c                readline_init
 .text.readline_push_history
                0x000000000800cf70       0x48 build/shared/readline/readline.o
                0x000000000800cf70                readline_push_history
 .text.readline_process_char
                0x000000000800cfb8      0x29c build/shared/readline/readline.o
                0x000000000800cfb8                readline_process_char
 .text.readline
                0x000000000800d254       0x14 build/shared/readline/readline.o
                0x000000000800d254                readline
 .text.parse_compile_execute
                0x000000000800d268      0x11c build/shared/runtime/pyexec.o
 .text.pyexec_friendly_repl
                0x000000000800d384      0x13c build/shared/runtime/pyexec.o
                0x000000000800d384                pyexec_friendly_repl
 .text.mp_hal_stdout_tx_strn_cooked
                0x000000000800d4c0       0x44 build/shared/runtime/stdout_helpers.o
                0x000000000800d4c0                mp_hal_stdout_tx_strn_cooked
 .text.mp_hal_stdout_tx_str
                0x000000000800d504       0x14 build/shared/runtime/stdout_helpers.o
                0x000000000800d504                mp_hal_stdout_tx_str
 .text.memcpy   0x000000000800d518       0x50 build/shared/libc/string0.o
                0x000000000800d518                memcpy
 .text.memmove  0x000000000800d568       0x2c build/shared/libc/string0.o
                0x000000000800d568                memmove
 .text.memset   0x000000000800d594       0x44 build/shared/libc/string0.o
                0x000000000800d594                memset
 .text.memcmp   0x000000000800d5d8       0x24 build/shared/libc/string0.o
                0x000000000800d5d8                memcmp
 .text.strlen   0x000000000800d5fc        0xe build/shared/libc/string0.o
                0x000000000800d5fc                strlen
 .text.strcmp   0x000000000800d60a       0x2c build/shared/libc/string0.o
                0x000000000800d60a                strcmp
 .text.strncmp  0x000000000800d636       0x40 build/shared/libc/string0.o
                0x000000000800d636                strncmp
 .text.strchr   0x000000000800d676       0x1a build/shared/libc/string0.o
                0x000000000800d676                strchr
 *(.glue_7)
 .glue_7        0x000000000800d690        0x0 linker stubs
 *(.glue_7t)
 .glue_7t       0x000000000800d690        0x0 linker stubs
 *(.eh_frame)
 *(.init)
 *(.fini)
                0x000000000800d690                . = ALIGN (0x4)
                0x000000000800d690                _etext = .

.vfp11_veneer   0x000000000800d690        0x0
 .vfp11_veneer  0x000000000800d690        0x0 linker stubs

.v4_bx          0x000000000800d690        0x0
 .v4_bx         0x000000000800d690        0x0 linker stubs

.iplt           0x000000000800d690        0x0
 .iplt          0x000000000800d690        0x0 build/py/nlr.o

.rodata         0x000000000800d690     0x2f90
                0x000000000800d690                . = ALIGN (0x4)
 *(.rodata)
 *(.rodata*)
 .rodata.qstr_from_strn.str1.1
                0x000000000800d690        0x5 build/py/qstr.o
 .rodata.mp_decompress_rom_string.str1.1
                0x000000000800d695      0x2e4 build/py/qstr.o
 .rodata.str1.1
                0x000000000800d979      0x61c build/py/qstr.o
                                        0x691 (size before relaxing)
 .rodata.mp_qstr_const_hashes
                0x000000000800df95       0xd1 build/py/qstr.o
                0x000000000800df95                mp_qstr_const_hashes
 .rodata.mp_qstr_const_lengths
                0x000000000800e066       0xd1 build/py/qstr.o
                0x000000000800e066                mp_qstr_const_lengths
 *fill*         0x000000000800e137        0x1 
 .rodata.mp_qstr_const_pool
                0x000000000800e138      0x35c build/py/qstr.o
                0x000000000800e138                mp_qstr_const_pool
 .rodata.mp_print_mp_int.str1.1
                0x000000000800e494        0x1 build/py/mpprint.o
 .rodata.mp_vprintf.str1.1
                0x000000000800e494        0xb build/py/mpprint.o
 *fill*         0x000000000800e49f        0x1 
 .rodata.mp_plat_print
                0x000000000800e4a0        0x8 build/py/mpprint.o
                0x000000000800e4a0                mp_plat_print
 .rodata.pad_spaces
                0x000000000800e4a8       0x11 build/py/mpprint.o
 .rodata.pad_zeroes
                0x000000000800e4b9       0x11 build/py/mpprint.o
 .rodata.attr   0x000000000800e4ca       0x80 build/py/unicode.o
 .rodata.mp_lexer_to_next.str1.1
                0x000000000800e54a       0x56 build/py/lexer.o
 .rodata.str1.1
                0x000000000800e5a0       0x98 build/py/lexer.o
                                         0xbc (size before relaxing)
 .rodata.tok_enc_kind
                0x000000000800e638       0x2c build/py/lexer.o
 .rodata.tok_kw
                0x000000000800e664       0x88 build/py/lexer.o
 .rodata.mp_parse.str1.1
                0x000000000800e6ec       0x20 build/py/parse.o
 .rodata.rule_act_table
                0x000000000800e70c       0xa3 build/py/parse.o
 *fill*         0x000000000800e7af        0x1 
 .rodata.rule_arg_combined_table
                0x000000000800e7b0      0x348 build/py/parse.o
 .rodata.rule_arg_offset_table
                0x000000000800eaf8       0xa3 build/py/parse.o
 .rodata.scope_simple_name_table
                0x000000000800eb9b        0x7 build/py/scope.o
 .rodata.compile_star_expr.str1.1
                0x000000000800eba2        0xc build/py/compile.o
 .rodata.compile_break_cont_stmt.str1.1
                0x000000000800ebae        0x8 build/py/compile.o
 .rodata.c_assign.str1.1
                0x000000000800ebb6        0x6 build/py/compile.o
 .rodata.c_assign_tuple.str1.1
                0x000000000800ebbc        0x6 build/py/compile.o
 .rodata.compile_yield_expr.str1.1
                0x000000000800ebc2        0x5 build/py/compile.o
 .rodata.c_del_stmt.str1.1
                0x000000000800ebc7        0xa build/py/compile.o
 .rodata.compile_trailer_paren_helper.str1.1
                0x000000000800ebd1       0x26 build/py/compile.o
 .rodata.compile_decorated.str1.1
                0x000000000800ebf7       0x18 build/py/compile.o
 .rodata.compile_funcdef_lambdef_param.str1.1
                0x000000000800ec0f       0x17 build/py/compile.o
 .rodata.compile_atom_expr_normal.str1.1
                0x000000000800ec26        0xf build/py/compile.o
 .rodata.compile_try_except.str1.1
                0x000000000800ec35        0xa build/py/compile.o
 .rodata.compile_global_nonlocal_stmt.str1.1
                0x000000000800ec3f       0x26 build/py/compile.o
 .rodata.compile_scope_func_lambda_param.constprop.0.str1.1
                0x000000000800ec65        0xa build/py/compile.o
                                          0xe (size before relaxing)
 *fill*         0x000000000800ec6f        0x1 
 .rodata.compile_function
                0x000000000800ec70       0xd8 build/py/compile.o
 .rodata.mp_emit_bc_end_pass.str1.1
                0x000000000800ed48        0x4 build/py/emitbc.o
 .rodata.mp_emit_bc_method_table_delete_id_ops
                0x000000000800ed4c        0x8 build/py/emitbc.o
                0x000000000800ed4c                mp_emit_bc_method_table_delete_id_ops
 .rodata.mp_emit_bc_method_table_load_id_ops
                0x000000000800ed54        0x8 build/py/emitbc.o
                0x000000000800ed54                mp_emit_bc_method_table_load_id_ops
 .rodata.mp_emit_bc_method_table_store_id_ops
                0x000000000800ed5c        0x8 build/py/emitbc.o
                0x000000000800ed5c                mp_emit_bc_method_table_store_id_ops
 .rodata.mp_parse_num_integer.str1.1
                0x000000000800ed64       0x1c build/py/parsenum.o
 .rodata.mp_parse_num_float.str1.1
                0x000000000800ed80       0x13 build/py/parsenum.o
 .rodata.mp_load_global.str1.1
                0x000000000800ed93        0xb build/py/runtime.o
 .rodata.mp_load_method.str1.1
                0x000000000800ed9e        0x8 build/py/runtime.o
 .rodata.mp_import_from.str1.1
                0x000000000800eda6        0x6 build/py/runtime.o
 .rodata.m_malloc_fail.str1.1
                0x000000000800edac       0x18 build/py/runtime.o
 .rodata.mp_unary_op.str1.1
                0x000000000800edc4       0x1d build/py/runtime.o
 .rodata.mp_call_function_n_kw.str1.1
                0x000000000800ede1        0x5 build/py/runtime.o
 .rodata.mp_make_raise_obj.str1.1
                0x000000000800ede6       0x15 build/py/runtime.o
 .rodata.mp_resume.str1.1
                0x000000000800edfb        0xa build/py/runtime.o
 .rodata.mp_getiter.str1.1
                0x000000000800ee05        0xc build/py/runtime.o
 .rodata.mp_iternext_allow_raise.str1.1
                0x000000000800ee11        0xd build/py/runtime.o
 .rodata.mp_unpack_sequence.str1.1
                0x000000000800ee1e        0xd build/py/runtime.o
 .rodata.mp_binary_op.str1.1
                0x000000000800ee2b       0x28 build/py/runtime.o
 *fill*         0x000000000800ee53        0x1 
 .rodata.mp_module___main__
                0x000000000800ee54        0x8 build/py/runtime.o
                0x000000000800ee54                mp_module___main__
 .rodata.mp_arg_error_terse_mismatch.str1.1
                0x000000000800ee5c       0x15 build/py/argcheck.o
 *fill*         0x000000000800ee71        0x1 
 .rodata.hash_allocation_sizes
                0x000000000800ee72       0x44 build/py/map.o
 .rodata.mp_obj_print_helper.str1.1
                0x000000000800eeb6        0x5 build/py/obj.o
 .rodata.mp_obj_print_exception.str1.1
                0x000000000800eebb       0x39 build/py/obj.o
                                         0x3b (size before relaxing)
 .rodata.mp_obj_get_array.str1.1
                0x000000000800eef4        0xb build/py/obj.o
 .rodata.mp_get_index.str1.1
                0x000000000800eeff       0x13 build/py/obj.o
 .rodata.mp_obj_len.str1.1
                0x000000000800ef12        0x8 build/py/obj.o
 .rodata.mp_obj_subscr.str1.1
                0x000000000800ef1a       0x26 build/py/obj.o
 .rodata.mp_get_buffer_raise.str1.1
                0x000000000800ef40        0xe build/py/obj.o
 *fill*         0x000000000800ef4e        0x2 
 .rodata.mp_identity_obj
                0x000000000800ef50        0x8 build/py/obj.o
                0x000000000800ef50                mp_identity_obj
 .rodata.types.0
                0x000000000800ef58       0x40 build/py/obj.o
 .rodata.bool_print.str1.1
                0x000000000800ef98        0xb build/py/objbool.o
 .rodata.mp_type_bool
                0x000000000800ef98       0x24 build/py/objbool.o
                0x000000000800ef98                mp_type_bool
 .rodata.mp_type_bound_meth
                0x000000000800efbc       0x18 build/py/objboundmeth.o
 .rodata.mp_type_cell
                0x000000000800efd4       0x14 build/py/objcell.o
 .rodata.mp_type_closure
                0x000000000800efe8       0x18 build/py/objclosure.o
                0x000000000800efe8                mp_type_closure
 .rodata.dict_view_print.str1.1
                0x000000000800f000        0x9 build/py/objdict.o
 .rodata.dict_print.str1.1
                0x000000000800f009        0x2 build/py/objdict.o
                                          0x7 (size before relaxing)
 .rodata.dict_popitem.str1.1
                0x000000000800f00b       0x19 build/py/objdict.o
 .rodata.dict_update.str1.1
                0x000000000800f024       0x11 build/py/objdict.o
 .rodata.str1.1
                0x000000000800f035       0x21 build/py/objdict.o
 *fill*         0x000000000800f056        0x2 
 .rodata.dict_clear_obj
                0x000000000800f058        0x8 build/py/objdict.o
 .rodata.dict_copy_obj
                0x000000000800f060        0x8 build/py/objdict.o
 .rodata.dict_get_obj
                0x000000000800f068        0xc build/py/objdict.o
 .rodata.dict_items_obj
                0x000000000800f074        0x8 build/py/objdict.o
 .rodata.dict_keys_obj
                0x000000000800f07c        0x8 build/py/objdict.o
 .rodata.dict_locals_dict
                0x000000000800f084       0x10 build/py/objdict.o
 .rodata.dict_locals_dict_table
                0x000000000800f094       0x68 build/py/objdict.o
 .rodata.dict_pop_obj
                0x000000000800f0fc        0xc build/py/objdict.o
 .rodata.dict_popitem_obj
                0x000000000800f108        0x8 build/py/objdict.o
 .rodata.dict_setdefault_obj
                0x000000000800f110        0xc build/py/objdict.o
 .rodata.dict_update_obj
                0x000000000800f11c        0xc build/py/objdict.o
 .rodata.dict_values_obj
                0x000000000800f128        0x8 build/py/objdict.o
 .rodata.mp_dict_view_names
                0x000000000800f130        0xc build/py/objdict.o
 .rodata.mp_type_dict
                0x000000000800f13c       0x30 build/py/objdict.o
                0x000000000800f13c                mp_type_dict
 .rodata.mp_type_dict_view
                0x000000000800f16c       0x20 build/py/objdict.o
 .rodata.mp_type_dict_view_it
                0x000000000800f18c       0x18 build/py/objdict.o
 .rodata.mp_obj_exception_print.str1.1
                0x000000000800f1a4        0x4 build/py/objexcept.o
 .rodata.mp_type_ArithmeticError
                0x000000000800f1a4       0x24 build/py/objexcept.o
                0x000000000800f1a4                mp_type_ArithmeticError
 .rodata.mp_type_AssertionError
                0x000000000800f1c8       0x24 build/py/objexcept.o
                0x000000000800f1c8                mp_type_AssertionError
 .rodata.mp_type_AttributeError
                0x000000000800f1ec       0x24 build/py/objexcept.o
                0x000000000800f1ec                mp_type_AttributeError
 .rodata.mp_type_BaseException
                0x000000000800f210       0x20 build/py/objexcept.o
                0x000000000800f210                mp_type_BaseException
 .rodata.mp_type_EOFError
                0x000000000800f230       0x24 build/py/objexcept.o
                0x000000000800f230                mp_type_EOFError
 .rodata.mp_type_Exception
                0x000000000800f254       0x24 build/py/objexcept.o
                0x000000000800f254                mp_type_Exception
 .rodata.mp_type_GeneratorExit
                0x000000000800f278       0x24 build/py/objexcept.o
                0x000000000800f278                mp_type_GeneratorExit
 .rodata.mp_type_ImportError
                0x000000000800f29c       0x24 build/py/objexcept.o
                0x000000000800f29c                mp_type_ImportError
 .rodata.mp_type_IndentationError
                0x000000000800f2c0       0x24 build/py/objexcept.o
                0x000000000800f2c0                mp_type_IndentationError
 .rodata.mp_type_IndexError
                0x000000000800f2e4       0x24 build/py/objexcept.o
                0x000000000800f2e4                mp_type_IndexError
 .rodata.mp_type_KeyError
                0x000000000800f308       0x24 build/py/objexcept.o
                0x000000000800f308                mp_type_KeyError
 .rodata.mp_type_KeyboardInterrupt
                0x000000000800f32c       0x24 build/py/objexcept.o
                0x000000000800f32c                mp_type_KeyboardInterrupt
 .rodata.mp_type_LookupError
                0x000000000800f350       0x24 build/py/objexcept.o
                0x000000000800f350                mp_type_LookupError
 .rodata.mp_type_MemoryError
                0x000000000800f374       0x24 build/py/objexcept.o
                0x000000000800f374                mp_type_MemoryError
 .rodata.mp_type_NameError
                0x000000000800f398       0x24 build/py/objexcept.o
                0x000000000800f398                mp_type_NameError
 .rodata.mp_type_NotImplementedError
                0x000000000800f3bc       0x24 build/py/objexcept.o
                0x000000000800f3bc                mp_type_NotImplementedError
 .rodata.mp_type_OSError
                0x000000000800f3e0       0x24 build/py/objexcept.o
                0x000000000800f3e0                mp_type_OSError
 .rodata.mp_type_OverflowError
                0x000000000800f404       0x24 build/py/objexcept.o
                0x000000000800f404                mp_type_OverflowError
 .rodata.mp_type_RuntimeError
                0x000000000800f428       0x24 build/py/objexcept.o
                0x000000000800f428                mp_type_RuntimeError
 .rodata.mp_type_StopIteration
                0x000000000800f44c       0x24 build/py/objexcept.o
                0x000000000800f44c                mp_type_StopIteration
 .rodata.mp_type_SyntaxError
                0x000000000800f470       0x24 build/py/objexcept.o
                0x000000000800f470                mp_type_SyntaxError
 .rodata.mp_type_SystemExit
                0x000000000800f494       0x24 build/py/objexcept.o
                0x000000000800f494                mp_type_SystemExit
 .rodata.mp_type_TypeError
                0x000000000800f4b8       0x24 build/py/objexcept.o
                0x000000000800f4b8                mp_type_TypeError
 .rodata.mp_type_ValueError
                0x000000000800f4dc       0x24 build/py/objexcept.o
                0x000000000800f4dc                mp_type_ValueError
 .rodata.mp_type_ZeroDivisionError
                0x000000000800f500       0x24 build/py/objexcept.o
                0x000000000800f500                mp_type_ZeroDivisionError
 .rodata.mp_type_fun_bc
                0x000000000800f524       0x1c build/py/objfun.o
                0x000000000800f524                mp_type_fun_bc
 .rodata.mp_type_fun_builtin_0
                0x000000000800f540       0x1c build/py/objfun.o
                0x000000000800f540                mp_type_fun_builtin_0
 .rodata.mp_type_fun_builtin_1
                0x000000000800f55c       0x1c build/py/objfun.o
                0x000000000800f55c                mp_type_fun_builtin_1
 .rodata.mp_type_fun_builtin_2
                0x000000000800f578       0x1c build/py/objfun.o
                0x000000000800f578                mp_type_fun_builtin_2
 .rodata.mp_type_fun_builtin_3
                0x000000000800f594       0x1c build/py/objfun.o
                0x000000000800f594                mp_type_fun_builtin_3
 .rodata.mp_type_fun_builtin_var
                0x000000000800f5b0       0x1c build/py/objfun.o
                0x000000000800f5b0                mp_type_fun_builtin_var
 .rodata.gen_instance_print.str1.1
                0x000000000800f5cc       0x1e build/py/objgenerator.o
 .rodata.mp_obj_gen_resume.str1.1
                0x000000000800f5ea       0x32 build/py/objgenerator.o
                                         0x3c (size before relaxing)
 .rodata.gen_instance_close.str1.1
                0x000000000800f61c        0xb build/py/objgenerator.o
 *fill*         0x000000000800f627        0x1 
 .rodata.gen_instance_close_obj
                0x000000000800f628        0x8 build/py/objgenerator.o
 .rodata.gen_instance_locals_dict
                0x000000000800f630       0x10 build/py/objgenerator.o
 .rodata.gen_instance_locals_dict_table
                0x000000000800f640       0x18 build/py/objgenerator.o
 .rodata.gen_instance_send_obj
                0x000000000800f658        0x8 build/py/objgenerator.o
 .rodata.gen_instance_throw_obj
                0x000000000800f660        0xc build/py/objgenerator.o
 .rodata.mp_const_GeneratorExit_obj
                0x000000000800f66c       0x10 build/py/objgenerator.o
                0x000000000800f66c                mp_const_GeneratorExit_obj
 .rodata.mp_type_gen_instance
                0x000000000800f67c       0x24 build/py/objgenerator.o
                0x000000000800f67c                mp_type_gen_instance
 .rodata.mp_type_gen_wrap
                0x000000000800f6a0       0x1c build/py/objgenerator.o
                0x000000000800f6a0                mp_type_gen_wrap
 .rodata.mp_type_it
                0x000000000800f6bc       0x18 build/py/objgetitemiter.o
 .rodata.mp_obj_new_int_from_str_len.str1.1
                0x000000000800f6d4        0xc build/py/objint.o
 .rodata.mp_obj_new_int_from_ll.str1.1
                0x000000000800f6e0        0x9 build/py/objint.o
 *fill*         0x000000000800f6e9        0x3 
 .rodata.int_from_bytes_fun_obj
                0x000000000800f6ec        0xc build/py/objint.o
 .rodata.int_from_bytes_obj
                0x000000000800f6f8        0x8 build/py/objint.o
 .rodata.int_locals_dict
                0x000000000800f700       0x10 build/py/objint.o
 .rodata.int_locals_dict_table
                0x000000000800f710       0x10 build/py/objint.o
 .rodata.int_to_bytes_obj
                0x000000000800f720        0xc build/py/objint.o
 .rodata.log_base2_floor
                0x000000000800f72c       0x10 build/py/objint.o
 .rodata.mp_type_int
                0x000000000800f73c       0x28 build/py/objint.o
                0x000000000800f73c                mp_type_int
 .rodata.list_pop.str1.1
                0x000000000800f764        0x8 build/py/objlist.o
 .rodata.list_print.str1.1
                0x000000000800f76c        0x2 build/py/objlist.o
                                          0x7 (size before relaxing)
 *fill*         0x000000000800f76e        0x2 
 .rodata.allowed_args.0
                0x000000000800f770       0x10 build/py/objlist.o
 .rodata.list_append_obj
                0x000000000800f780        0x8 build/py/objlist.o
 .rodata.list_clear_obj
                0x000000000800f788        0x8 build/py/objlist.o
 .rodata.list_copy_obj
                0x000000000800f790        0x8 build/py/objlist.o
 .rodata.list_count_obj
                0x000000000800f798        0x8 build/py/objlist.o
 .rodata.list_extend_obj
                0x000000000800f7a0        0x8 build/py/objlist.o
 .rodata.list_index_obj
                0x000000000800f7a8        0xc build/py/objlist.o
 .rodata.list_insert_obj
                0x000000000800f7b4        0x8 build/py/objlist.o
 .rodata.list_locals_dict
                0x000000000800f7bc       0x10 build/py/objlist.o
 .rodata.list_locals_dict_table
                0x000000000800f7cc       0x58 build/py/objlist.o
 .rodata.list_pop_obj
                0x000000000800f824        0xc build/py/objlist.o
 .rodata.list_remove_obj
                0x000000000800f830        0x8 build/py/objlist.o
 .rodata.list_reverse_obj
                0x000000000800f838        0x8 build/py/objlist.o
 .rodata.list_sort_obj
                0x000000000800f840        0xc build/py/objlist.o
 .rodata.mp_type_list
                0x000000000800f84c       0x30 build/py/objlist.o
                0x000000000800f84c                mp_type_list
 .rodata.mp_type_map
                0x000000000800f87c       0x1c build/py/objmap.o
                0x000000000800f87c                mp_type_map
 .rodata.module_print.str1.1
                0x000000000800f898        0xe build/py/objmodule.o
                                          0xf (size before relaxing)
 *fill*         0x000000000800f8a6        0x2 
 .rodata.mp_builtin_module_map
                0x000000000800f8a8        0xc build/py/objmodule.o
                0x000000000800f8a8                mp_builtin_module_map
 .rodata.mp_builtin_module_table
                0x000000000800f8b4       0x18 build/py/objmodule.o
 .rodata.mp_type_module
                0x000000000800f8cc       0x1c build/py/objmodule.o
                0x000000000800f8cc                mp_type_module
 .rodata.mp_type_object
                0x000000000800f8e8       0x18 build/py/objobject.o
                0x000000000800f8e8                mp_type_object
 .rodata.mp_type_polymorph_iter
                0x000000000800f900       0x18 build/py/objpolyiter.o
                0x000000000800f900                mp_type_polymorph_iter
 .rodata.none_print.str1.1
                0x000000000800f918        0x5 build/py/objnone.o
 .rodata.mp_type_NoneType
                0x000000000800f918       0x1c build/py/objnone.o
                0x000000000800f918                mp_type_NoneType
 .rodata.range_print.str1.1
                0x000000000800f934       0x13 build/py/objrange.o
                                         0x15 (size before relaxing)
 .rodata.range_make_new.str1.1
                0x000000000800f947        0x7 build/py/objrange.o
 *fill*         0x000000000800f94e        0x2 
 .rodata.mp_type_range
                0x000000000800f950       0x28 build/py/objrange.o
                0x000000000800f950                mp_type_range
 .rodata.mp_type_range_it
                0x000000000800f978       0x18 build/py/objrange.o
 .rodata.singleton_print.str1.1
                0x000000000800f990        0x3 build/py/objsingleton.o
 *fill*         0x000000000800f993        0x1 
 .rodata.mp_const_ellipsis_obj
                0x000000000800f994        0x8 build/py/objsingleton.o
                0x000000000800f994                mp_const_ellipsis_obj
 .rodata.mp_type_singleton
                0x000000000800f99c       0x1c build/py/objsingleton.o
                0x000000000800f99c                mp_type_singleton
 .rodata.terse_str_format_value_error.str1.1
                0x000000000800f9b8       0x10 build/py/objstr.o
 .rodata.str_check_arg_type.str1.1
                0x000000000800f9c8       0x13 build/py/objstr.o
 .rodata.str_join.str1.1
                0x000000000800f9db       0x1f build/py/objstr.o
 .rodata.mp_str_print_quoted.str1.1
                0x000000000800f9fa       0x17 build/py/objstr.o
                                         0x1a (size before relaxing)
 .rodata.str_print.str1.1
                0x000000000800fa11        0x2 build/py/objstr.o
 .rodata.str_finder.str1.1
                0x000000000800fa13        0xd build/py/objstr.o
 .rodata.bytes_make_new.str1.1
                0x000000000800fa20        0x6 build/py/objstr.o
 .rodata.mp_obj_str_split.str1.1
                0x000000000800fa26        0xc build/py/objstr.o
 .rodata.str_rsplit.str1.1
                0x000000000800fa32        0xf build/py/objstr.o
 .rodata.str_endswith.str1.1
                0x000000000800fa41        0xc build/py/objstr.o
 .rodata.mp_obj_str_format_helper.str1.1
                0x000000000800fa4d       0x24 build/py/objstr.o
 .rodata.str1.1
                0x000000000800fa71        0x1 build/py/objstr.o
 *fill*         0x000000000800fa71        0x3 
 .rodata.array_bytearray_str_bytes_locals_table
                0x000000000800fa74       0xa8 build/py/objstr.o
 .rodata.mp_const_empty_bytes_obj
                0x000000000800fb1c       0x10 build/py/objstr.o
                0x000000000800fb1c                mp_const_empty_bytes_obj
 .rodata.mp_obj_str_locals_dict
                0x000000000800fb2c       0x10 build/py/objstr.o
                0x000000000800fb2c                mp_obj_str_locals_dict
 .rodata.mp_type_bytes
                0x000000000800fb3c       0x30 build/py/objstr.o
                0x000000000800fb3c                mp_type_bytes
 .rodata.mp_type_str
                0x000000000800fb6c       0x30 build/py/objstr.o
                0x000000000800fb6c                mp_type_str
 .rodata.str_endswith_obj
                0x000000000800fb9c        0xc build/py/objstr.o
                0x000000000800fb9c                str_endswith_obj
 .rodata.str_find_obj
                0x000000000800fba8        0xc build/py/objstr.o
                0x000000000800fba8                str_find_obj
 .rodata.str_format_obj
                0x000000000800fbb4        0xc build/py/objstr.o
                0x000000000800fbb4                str_format_obj
 .rodata.str_index_obj
                0x000000000800fbc0        0xc build/py/objstr.o
                0x000000000800fbc0                str_index_obj
 .rodata.str_isalpha_obj
                0x000000000800fbcc        0x8 build/py/objstr.o
                0x000000000800fbcc                str_isalpha_obj
 .rodata.str_isdigit_obj
                0x000000000800fbd4        0x8 build/py/objstr.o
                0x000000000800fbd4                str_isdigit_obj
 .rodata.str_islower_obj
                0x000000000800fbdc        0x8 build/py/objstr.o
                0x000000000800fbdc                str_islower_obj
 .rodata.str_isspace_obj
                0x000000000800fbe4        0x8 build/py/objstr.o
                0x000000000800fbe4                str_isspace_obj
 .rodata.str_isupper_obj
                0x000000000800fbec        0x8 build/py/objstr.o
                0x000000000800fbec                str_isupper_obj
 .rodata.str_join_obj
                0x000000000800fbf4        0x8 build/py/objstr.o
                0x000000000800fbf4                str_join_obj
 .rodata.str_lower_obj
                0x000000000800fbfc        0x8 build/py/objstr.o
                0x000000000800fbfc                str_lower_obj
 .rodata.str_lstrip_obj
                0x000000000800fc04        0xc build/py/objstr.o
                0x000000000800fc04                str_lstrip_obj
 .rodata.str_replace_obj
                0x000000000800fc10        0xc build/py/objstr.o
                0x000000000800fc10                str_replace_obj
 .rodata.str_rfind_obj
                0x000000000800fc1c        0xc build/py/objstr.o
                0x000000000800fc1c                str_rfind_obj
 .rodata.str_rindex_obj
                0x000000000800fc28        0xc build/py/objstr.o
                0x000000000800fc28                str_rindex_obj
 .rodata.str_rsplit_obj
                0x000000000800fc34        0xc build/py/objstr.o
                0x000000000800fc34                str_rsplit_obj
 .rodata.str_rstrip_obj
                0x000000000800fc40        0xc build/py/objstr.o
                0x000000000800fc40                str_rstrip_obj
 .rodata.str_split_obj
                0x000000000800fc4c        0xc build/py/objstr.o
                0x000000000800fc4c                str_split_obj
 .rodata.str_startswith_obj
                0x000000000800fc58        0xc build/py/objstr.o
                0x000000000800fc58                str_startswith_obj
 .rodata.str_strip_obj
                0x000000000800fc64        0xc build/py/objstr.o
                0x000000000800fc64                str_strip_obj
 .rodata.str_upper_obj
                0x000000000800fc70        0x8 build/py/objstr.o
                0x000000000800fc70                str_upper_obj
 .rodata.whitespace.0
                0x000000000800fc78        0x7 build/py/objstr.o
 .rodata.mp_obj_tuple_print.str1.1
                0x000000000800fc7f        0x4 build/py/objtuple.o
                                          0x9 (size before relaxing)
 *fill*         0x000000000800fc83        0x1 
 .rodata.mp_const_empty_tuple_obj
                0x000000000800fc84        0x8 build/py/objtuple.o
                0x000000000800fc84                mp_const_empty_tuple_obj
 .rodata.mp_type_tuple
                0x000000000800fc8c       0x30 build/py/objtuple.o
                0x000000000800fc8c                mp_type_tuple
 .rodata.tuple_count_obj
                0x000000000800fcbc        0x8 build/py/objtuple.o
 .rodata.tuple_index_obj
                0x000000000800fcc4        0xc build/py/objtuple.o
 .rodata.tuple_locals_dict
                0x000000000800fcd0       0x10 build/py/objtuple.o
 .rodata.tuple_locals_dict_table
                0x000000000800fce0       0x10 build/py/objtuple.o
 .rodata.type_call.str1.1
                0x000000000800fcf0        0xa build/py/objtype.o
 .rodata.type_print.str1.1
                0x000000000800fcfa        0xd build/py/objtype.o
 .rodata.super_print.str1.1
                0x000000000800fd07        0x9 build/py/objtype.o
                                          0xe (size before relaxing)
 .rodata.instance_print.str1.1
                0x000000000800fd10       0x12 build/py/objtype.o
 .rodata.mp_obj_instance_make_new.str1.1
                0x000000000800fd22       0x11 build/py/objtype.o
 .rodata.mp_obj_instance_call.str1.1
                0x000000000800fd33        0x5 build/py/objtype.o
 .rodata.mp_obj_new_type.str1.1
                0x000000000800fd33       0x29 build/py/objtype.o
 .rodata.type_make_new.str1.1
                0x000000000800fd5c        0xc build/py/objtype.o
 .rodata.mp_obj_is_subclass.str1.1
                0x000000000800fd68        0xe build/py/objtype.o
 .rodata.mp_builtin_issubclass.str1.1
                0x000000000800fd76        0x9 build/py/objtype.o
 .rodata.mp_binary_op_method_name
                0x000000000800fd7f       0x25 build/py/objtype.o
                0x000000000800fd7f                mp_binary_op_method_name
 .rodata.mp_builtin_isinstance_obj
                0x000000000800fda4        0x8 build/py/objtype.o
                0x000000000800fda4                mp_builtin_isinstance_obj
 .rodata.mp_builtin_issubclass_obj
                0x000000000800fdac        0x8 build/py/objtype.o
                0x000000000800fdac                mp_builtin_issubclass_obj
 .rodata.mp_type_classmethod
                0x000000000800fdb4       0x18 build/py/objtype.o
                0x000000000800fdb4                mp_type_classmethod
 .rodata.mp_type_staticmethod
                0x000000000800fdcc       0x18 build/py/objtype.o
                0x000000000800fdcc                mp_type_staticmethod
 .rodata.mp_type_super
                0x000000000800fde4       0x20 build/py/objtype.o
                0x000000000800fde4                mp_type_super
 .rodata.mp_type_type
                0x000000000800fe04       0x28 build/py/objtype.o
                0x000000000800fe04                mp_type_type
 .rodata.mp_unary_op_method_name
                0x000000000800fe2c        0xc build/py/objtype.o
                0x000000000800fe2c                mp_unary_op_method_name
 .rodata.native_base_init_wrapper_obj
                0x000000000800fe38        0xc build/py/objtype.o
 .rodata.mp_type_zip
                0x000000000800fe44       0x1c build/py/objzip.o
                0x000000000800fe44                mp_type_zip
 .rodata.mp_op_delitem_obj
                0x000000000800fe60        0x8 build/py/opmethods.o
                0x000000000800fe60                mp_op_delitem_obj
 .rodata.mp_op_getitem_obj
                0x000000000800fe68        0x8 build/py/opmethods.o
                0x000000000800fe68                mp_op_getitem_obj
 .rodata.mp_op_setitem_obj
                0x000000000800fe70        0x8 build/py/opmethods.o
                0x000000000800fe70                mp_op_setitem_obj
 .rodata.mp_seq_index_obj.str1.1
                0x000000000800fe78        0x6 build/py/sequence.o
 .rodata.evaluate_relative_import.str1.1
                0x000000000800fe7e       0x14 build/py/builtinimport.o
 .rodata.stat_path_or_frozen.str1.1
                0x000000000800fe92        0x9 build/py/builtinimport.o
 .rodata.stat_dir_or_file.str1.1
                0x000000000800fe9b        0x9 build/py/builtinimport.o
                                          0x4 (size before relaxing)
 .rodata.mp_builtin___import___default.str1.1
                0x000000000800fe9b       0x17 build/py/builtinimport.o
 *fill*         0x000000000800feb2        0x2 
 .rodata.mp_builtin___import___obj
                0x000000000800feb4        0xc build/py/builtinimport.o
                0x000000000800feb4                mp_builtin___import___obj
 .rodata.mp_builtin_eval_obj
                0x000000000800fec0        0xc build/py/builtinevex.o
                0x000000000800fec0                mp_builtin_eval_obj
 .rodata.mp_builtin_exec_obj
                0x000000000800fecc        0xc build/py/builtinevex.o
                0x000000000800fecc                mp_builtin_exec_obj
 .rodata.mp_builtin_chr.str1.1
                0x000000000800fed8       0x10 build/py/modbuiltins.o
 .rodata.mp_builtin_ord.str1.1
                0x000000000800fee8        0x8 build/py/modbuiltins.o
 .rodata.mp_builtin_pow.str1.1
                0x000000000800fef0        0xa build/py/modbuiltins.o
 .rodata.mp_builtin_sorted.str1.1
                0x000000000800fefa        0xd build/py/modbuiltins.o
 .rodata.mp_builtin___repl_print__.str1.1
                0x000000000800ff07        0x2 build/py/modbuiltins.o
 *fill*         0x000000000800ff07        0x1 
 .rodata.allowed_args.0
                0x000000000800ff08       0x10 build/py/modbuiltins.o
 .rodata.mp_builtin___build_class___obj
                0x000000000800ff18        0xc build/py/modbuiltins.o
                0x000000000800ff18                mp_builtin___build_class___obj
 .rodata.mp_builtin___repl_print___obj
                0x000000000800ff24        0x8 build/py/modbuiltins.o
                0x000000000800ff24                mp_builtin___repl_print___obj
 .rodata.mp_builtin_abs_obj
                0x000000000800ff2c        0x8 build/py/modbuiltins.o
                0x000000000800ff2c                mp_builtin_abs_obj
 .rodata.mp_builtin_all_obj
                0x000000000800ff34        0x8 build/py/modbuiltins.o
                0x000000000800ff34                mp_builtin_all_obj
 .rodata.mp_builtin_any_obj
                0x000000000800ff3c        0x8 build/py/modbuiltins.o
                0x000000000800ff3c                mp_builtin_any_obj
 .rodata.mp_builtin_bin_obj
                0x000000000800ff44        0x8 build/py/modbuiltins.o
                0x000000000800ff44                mp_builtin_bin_obj
 .rodata.mp_builtin_callable_obj
                0x000000000800ff4c        0x8 build/py/modbuiltins.o
                0x000000000800ff4c                mp_builtin_callable_obj
 .rodata.mp_builtin_chr_obj
                0x000000000800ff54        0x8 build/py/modbuiltins.o
                0x000000000800ff54                mp_builtin_chr_obj
 .rodata.mp_builtin_dir_obj
                0x000000000800ff5c        0xc build/py/modbuiltins.o
                0x000000000800ff5c                mp_builtin_dir_obj
 .rodata.mp_builtin_divmod_obj
                0x000000000800ff68        0x8 build/py/modbuiltins.o
                0x000000000800ff68                mp_builtin_divmod_obj
 .rodata.mp_builtin_getattr_obj
                0x000000000800ff70        0xc build/py/modbuiltins.o
                0x000000000800ff70                mp_builtin_getattr_obj
 .rodata.mp_builtin_globals_obj
                0x000000000800ff7c        0x8 build/py/modbuiltins.o
                0x000000000800ff7c                mp_builtin_globals_obj
 .rodata.mp_builtin_hasattr_obj
                0x000000000800ff84        0x8 build/py/modbuiltins.o
                0x000000000800ff84                mp_builtin_hasattr_obj
 .rodata.mp_builtin_hash_obj
                0x000000000800ff8c        0x8 build/py/modbuiltins.o
                0x000000000800ff8c                mp_builtin_hash_obj
 .rodata.mp_builtin_hex_obj
                0x000000000800ff94        0x8 build/py/modbuiltins.o
                0x000000000800ff94                mp_builtin_hex_obj
 .rodata.mp_builtin_id_obj
                0x000000000800ff9c        0x8 build/py/modbuiltins.o
                0x000000000800ff9c                mp_builtin_id_obj
 .rodata.mp_builtin_iter_obj
                0x000000000800ffa4        0x8 build/py/modbuiltins.o
                0x000000000800ffa4                mp_builtin_iter_obj
 .rodata.mp_builtin_len_obj
                0x000000000800ffac        0x8 build/py/modbuiltins.o
                0x000000000800ffac                mp_builtin_len_obj
 .rodata.mp_builtin_locals_obj
                0x000000000800ffb4        0x8 build/py/modbuiltins.o
                0x000000000800ffb4                mp_builtin_locals_obj
 .rodata.mp_builtin_next_obj
                0x000000000800ffbc        0x8 build/py/modbuiltins.o
                0x000000000800ffbc                mp_builtin_next_obj
 .rodata.mp_builtin_oct_obj
                0x000000000800ffc4        0x8 build/py/modbuiltins.o
                0x000000000800ffc4                mp_builtin_oct_obj
 .rodata.mp_builtin_ord_obj
                0x000000000800ffcc        0x8 build/py/modbuiltins.o
                0x000000000800ffcc                mp_builtin_ord_obj
 .rodata.mp_builtin_pow_obj
                0x000000000800ffd4        0xc build/py/modbuiltins.o
                0x000000000800ffd4                mp_builtin_pow_obj
 .rodata.mp_builtin_print_obj
                0x000000000800ffe0        0xc build/py/modbuiltins.o
                0x000000000800ffe0                mp_builtin_print_obj
 .rodata.mp_builtin_repr_obj
                0x000000000800ffec        0x8 build/py/modbuiltins.o
                0x000000000800ffec                mp_builtin_repr_obj
 .rodata.mp_builtin_round_obj
                0x000000000800fff4        0xc build/py/modbuiltins.o
                0x000000000800fff4                mp_builtin_round_obj
 .rodata.mp_builtin_setattr_obj
                0x0000000008010000        0x8 build/py/modbuiltins.o
                0x0000000008010000                mp_builtin_setattr_obj
 .rodata.mp_builtin_sorted_obj
                0x0000000008010008        0xc build/py/modbuiltins.o
                0x0000000008010008                mp_builtin_sorted_obj
 .rodata.mp_builtin_sum_obj
                0x0000000008010014        0xc build/py/modbuiltins.o
                0x0000000008010014                mp_builtin_sum_obj
 .rodata.mp_module_builtins
                0x0000000008010020        0x8 build/py/modbuiltins.o
                0x0000000008010020                mp_module_builtins
 .rodata.mp_module_builtins_globals
                0x0000000008010028       0x10 build/py/modbuiltins.o
                0x0000000008010028                mp_module_builtins_globals
 .rodata.mp_module_builtins_globals_table
                0x0000000008010038      0x260 build/py/modbuiltins.o
 .rodata.mp_micropython_heap_lock_obj
                0x0000000008010298        0x8 build/py/modmicropython.o
 .rodata.mp_micropython_heap_unlock_obj
                0x00000000080102a0        0x8 build/py/modmicropython.o
 .rodata.mp_micropython_opt_level_obj
                0x00000000080102a8        0xc build/py/modmicropython.o
 .rodata.mp_module_micropython
                0x00000000080102b4        0x8 build/py/modmicropython.o
                0x00000000080102b4                mp_module_micropython
 .rodata.mp_module_micropython_globals
                0x00000000080102bc       0x10 build/py/modmicropython.o
 .rodata.mp_module_micropython_globals_table
                0x00000000080102cc       0x28 build/py/modmicropython.o
 .rodata.mp_execute_bytecode.str1.1
                0x00000000080102f4       0x39 build/py/vm.o
 .rodata.mp_setup_code_state.str1.1
                0x000000000801032d       0x31 build/py/bc.o
 .rodata.mp_repl_continue_with_input.str1.1
                0x000000000801035e       0x20 build/py/repl.o
 .rodata.mp_repl_autocomplete.str1.1
                0x000000000801035e        0x4 build/py/repl.o
                                          0x8 (size before relaxing)
 .rodata.import_str.0
                0x0000000008010362        0x8 build/py/repl.o
 .rodata.main.str1.1
                0x000000000801036a       0x14 build/main.o
 .rodata.FnSerialInit.str1.1
                0x000000000801037e       0x95 build/STdriver.o
 .rodata.mp_hal_move_cursor_back.str1.1
                0x0000000008010413        0xa build/shared/readline/readline.o
 .rodata.readline_process_char.str1.1
                0x000000000801041d        0x9 build/shared/readline/readline.o
                                          0xc (size before relaxing)
 .rodata.parse_compile_execute.str1.1
                0x0000000008010426        0x2 build/shared/runtime/pyexec.o
 .rodata.pyexec_raw_repl.str1.1
                0x0000000008010428       0x21 build/shared/runtime/pyexec.o
                                         0x26 (size before relaxing)
 .rodata.pyexec_friendly_repl.str1.1
                0x0000000008010449       0x83 build/shared/runtime/pyexec.o
                                         0x8a (size before relaxing)
 .rodata.mp_hal_stdout_tx_strn_cooked.str1.1
                0x00000000080104cc        0x3 build/shared/runtime/stdout_helpers.o
 .rodata.str1.1
                0x00000000080104cc       0x6a build/build/_frozen_mpy.o
 *fill*         0x0000000008010536        0x2 
 .rodata.const_obj_frozentest_0
                0x0000000008010538       0x10 build/build/_frozen_mpy.o
 .rodata.const_obj_frozentest_1
                0x0000000008010548       0x10 build/build/_frozen_mpy.o
 .rodata.const_obj_frozentest_2
                0x0000000008010558       0x10 build/build/_frozen_mpy.o
 .rodata.const_obj_table_data_frozentest
                0x0000000008010568        0xc build/build/_frozen_mpy.o
 .rodata.const_qstr_table_data_frozentest
                0x0000000008010574        0xa build/build/_frozen_mpy.o
 *fill*         0x000000000801057e        0x2 
 .rodata.frozen_module_frozentest
                0x0000000008010580        0xc build/build/_frozen_mpy.o
 .rodata.fun_data_frozentest__lt_module_gt_
                0x000000000801058c       0x46 build/build/_frozen_mpy.o
 *fill*         0x00000000080105d2        0x2 
 .rodata.mp_frozen_mpy_content
                0x00000000080105d4        0x4 build/build/_frozen_mpy.o
                0x00000000080105d4                mp_frozen_mpy_content
 .rodata.mp_frozen_names
                0x00000000080105d8       0x10 build/build/_frozen_mpy.o
                0x00000000080105d8                mp_frozen_names
 .rodata.mp_qstr_frozen_const_hashes
                0x00000000080105e8        0x3 build/build/_frozen_mpy.o
                0x00000000080105e8                mp_qstr_frozen_const_hashes
 .rodata.mp_qstr_frozen_const_lengths
                0x00000000080105eb        0x3 build/build/_frozen_mpy.o
                0x00000000080105eb                mp_qstr_frozen_const_lengths
 *fill*         0x00000000080105ee        0x2 
 .rodata.mp_qstr_frozen_const_pool
                0x00000000080105f0       0x24 build/build/_frozen_mpy.o
                0x00000000080105f0                mp_qstr_frozen_const_pool
 .rodata.raw_code_frozentest__lt_module_gt_
                0x0000000008010614        0xc build/build/_frozen_mpy.o
                0x0000000008010620                . = ALIGN (0x4)

.rel.dyn        0x0000000008010620        0x0
 .rel.iplt      0x0000000008010620        0x0 build/py/nlr.o

.ARM.extab
 *(.ARM.extab* .gnu.linkonce.armextab.*)

.ARM            0x0000000008010620        0x0
                0x0000000008010620                __exidx_start = .
 *(.ARM.exidx*)
                0x0000000008010620                __exidx_end = .

.preinit_array  0x0000000008010620        0x0
                [!provide]                        PROVIDE (__preinit_array_start = .)
 *(.preinit_array*)
                [!provide]                        PROVIDE (__preinit_array_end = .)

.init_array     0x0000000008010620        0x0
                [!provide]                        PROVIDE (__init_array_start = .)
 *(SORT_BY_NAME(.init_array.*))
 *(.init_array*)
                [!provide]                        PROVIDE (__init_array_end = .)

.fini_array     0x0000000008010620        0x0
                [!provide]                        PROVIDE (__fini_array_start = .)
 *(SORT_BY_NAME(.fini_array.*))
 *(.fini_array*)
                [!provide]                        PROVIDE (__fini_array_end = .)
                0x0000000008010620                _sidata = LOADADDR (.data)

.data           0x0000000020000000       0x10 load address 0x0000000008010620
                0x0000000020000000                . = ALIGN (0x4)
                0x0000000020000000                _sdata = .
 *(.data)
 *(.data*)
 .data.APBAHBPrescTable
                0x0000000020000000       0x10 build/STdriver.o
                0x0000000020000010                . = ALIGN (0x4)
                0x0000000020000010                _edata = .

.igot.plt       0x0000000020000010        0x0 load address 0x0000000008010630
 .igot.plt      0x0000000020000010        0x0 build/py/nlr.o
                0x0000000020000010                . = ALIGN (0x4)

.bss            0x0000000020000010      0xdc4 load address 0x0000000008010630
                0x0000000020000010                _sbss = .
                0x0000000020000010                __bss_start__ = _sbss
 *(.bss)
 *(.bss*)
 .bss.mp_state_ctx
                0x0000000020000010      0x19c build/py/mpstate.o
                0x0000000020000010                mp_state_ctx
 .bss.heap      0x00000000200001ac      0xc00 build/main.o
 .bss.stack_top
                0x0000000020000dac        0x4 build/main.o
 .bss.rl        0x0000000020000db0       0x1c build/shared/readline/readline.o
 .bss.pyexec_mode_kind
                0x0000000020000dcc        0x1 build/shared/runtime/pyexec.o
                0x0000000020000dcc                pyexec_mode_kind
 *fill*         0x0000000020000dcd        0x3 
 .bss.pyexec_system_exit
                0x0000000020000dd0        0x4 build/shared/runtime/pyexec.o
                0x0000000020000dd0                pyexec_system_exit
 *(COMMON)
                0x0000000020000dd4                . = ALIGN (0x4)
                0x0000000020000dd4                _ebss = .
                0x0000000020000dd4                __bss_end__ = _ebss

._user_heap_stack
                0x0000000020000dd4      0x600 load address 0x0000000008010630
                0x0000000020000dd4                . = ALIGN (0x4)
                [!provide]                        PROVIDE (end = .)
                [!provide]                        PROVIDE (_end = .)
                0x0000000020000fd4                . = (. + _Min_Heap_Size)
 *fill*         0x0000000020000dd4      0x200 
                0x00000000200013d4                . = (. + _Min_Stack_Size)
 *fill*         0x0000000020000fd4      0x400 
                0x00000000200013d4                . = ALIGN (0x4)

/DISCARD/

.ARM.attributes
                0x0000000000000000       0x37
 *(.ARM.attributes)
 .ARM.attributes
                0x0000000000000000       0x37 build/py/mpstate.o
 .ARM.attributes
                0x0000000000000037       0x2e build/py/nlr.o
 .ARM.attributes
                0x0000000000000065       0x2e build/py/nlrthumb.o
 .ARM.attributes
                0x0000000000000093       0x2e build/py/malloc.o
 .ARM.attributes
                0x00000000000000c1       0x2e build/py/gc.o
 .ARM.attributes
                0x00000000000000ef       0x2e build/py/qstr.o
 .ARM.attributes
                0x000000000000011d       0x2e build/py/vstr.o
 .ARM.attributes
                0x000000000000014b       0x2e build/py/mpprint.o
 .ARM.attributes
                0x0000000000000179       0x2e build/py/unicode.o
 .ARM.attributes
                0x00000000000001a7       0x2e build/py/reader.o
 .ARM.attributes
                0x00000000000001d5       0x2e build/py/lexer.o
 .ARM.attributes
                0x0000000000000203       0x2e build/py/parse.o
 .ARM.attributes
                0x0000000000000231       0x2e build/py/scope.o
 .ARM.attributes
                0x000000000000025f       0x2e build/py/compile.o
 .ARM.attributes
                0x000000000000028d       0x2e build/py/emitcommon.o
 .ARM.attributes
                0x00000000000002bb       0x2e build/py/emitbc.o
 .ARM.attributes
                0x00000000000002e9       0x2e build/py/parsenumbase.o
 .ARM.attributes
                0x0000000000000317       0x2e build/py/parsenum.o
 .ARM.attributes
                0x0000000000000345       0x2e build/py/emitglue.o
 .ARM.attributes
                0x0000000000000373       0x2e build/py/runtime.o
 .ARM.attributes
                0x00000000000003a1       0x2e build/py/scheduler.o
 .ARM.attributes
                0x00000000000003cf       0x2e build/py/argcheck.o
 .ARM.attributes
                0x00000000000003fd       0x2e build/py/map.o
 .ARM.attributes
                0x000000000000042b       0x2e build/py/obj.o
 .ARM.attributes
                0x0000000000000459       0x2e build/py/objbool.o
 .ARM.attributes
                0x0000000000000487       0x2e build/py/objboundmeth.o
 .ARM.attributes
                0x00000000000004b5       0x2e build/py/objcell.o
 .ARM.attributes
                0x00000000000004e3       0x2e build/py/objclosure.o
 .ARM.attributes
                0x0000000000000511       0x2e build/py/objdict.o
 .ARM.attributes
                0x000000000000053f       0x2e build/py/objexcept.o
 .ARM.attributes
                0x000000000000056d       0x2e build/py/objfun.o
 .ARM.attributes
                0x000000000000059b       0x2e build/py/objgenerator.o
 .ARM.attributes
                0x00000000000005c9       0x2e build/py/objgetitemiter.o
 .ARM.attributes
                0x00000000000005f7       0x2e build/py/objint.o
 .ARM.attributes
                0x0000000000000625       0x2e build/py/objlist.o
 .ARM.attributes
                0x0000000000000653       0x2e build/py/objmap.o
 .ARM.attributes
                0x0000000000000681       0x2e build/py/objmodule.o
 .ARM.attributes
                0x00000000000006af       0x2e build/py/objobject.o
 .ARM.attributes
                0x00000000000006dd       0x2e build/py/objpolyiter.o
 .ARM.attributes
                0x000000000000070b       0x2e build/py/objnone.o
 .ARM.attributes
                0x0000000000000739       0x2e build/py/objrange.o
 .ARM.attributes
                0x0000000000000767       0x2e build/py/objsingleton.o
 .ARM.attributes
                0x0000000000000795       0x2e build/py/objstr.o
 .ARM.attributes
                0x00000000000007c3       0x2e build/py/objtuple.o
 .ARM.attributes
                0x00000000000007f1       0x2e build/py/objtype.o
 .ARM.attributes
                0x000000000000081f       0x2e build/py/objzip.o
 .ARM.attributes
                0x000000000000084d       0x2e build/py/opmethods.o
 .ARM.attributes
                0x000000000000087b       0x2e build/py/sequence.o
 .ARM.attributes
                0x00000000000008a9       0x2e build/py/stream.o
 .ARM.attributes
                0x00000000000008d7       0x2e build/py/binary.o
 .ARM.attributes
                0x0000000000000905       0x2e build/py/builtinimport.o
 .ARM.attributes
                0x0000000000000933       0x2e build/py/builtinevex.o
 .ARM.attributes
                0x0000000000000961       0x2e build/py/modbuiltins.o
 .ARM.attributes
                0x000000000000098f       0x2e build/py/modmicropython.o
 .ARM.attributes
                0x00000000000009bd       0x2e build/py/vm.o
 .ARM.attributes
                0x00000000000009eb       0x2e build/py/bc.o
 .ARM.attributes
                0x0000000000000a19       0x2e build/py/repl.o
 .ARM.attributes
                0x0000000000000a47       0x2e build/py/smallint.o
 .ARM.attributes
                0x0000000000000a75       0x2e build/py/frozenmod.o
 .ARM.attributes
                0x0000000000000aa3       0x2e build/main.o
 .ARM.attributes
                0x0000000000000ad1       0x2e build/uart_core.o
 .ARM.attributes
                0x0000000000000aff       0x2e build/STdriver.o
 .ARM.attributes
                0x0000000000000b2d       0x2e build/shared/libc/printf.o
 .ARM.attributes
                0x0000000000000b5b       0x2e build/shared/readline/readline.o
 .ARM.attributes
                0x0000000000000b89       0x2e build/shared/runtime/pyexec.o
 .ARM.attributes
                0x0000000000000bb7       0x2e build/shared/runtime/stdout_helpers.o
 .ARM.attributes
                0x0000000000000be5       0x37 build/build/_frozen_mpy.o
 .ARM.attributes
                0x0000000000000c1c       0x2e build/shared/libc/string0.o
LOAD build/py/mpstate.o
LOAD build/py/nlr.o
LOAD build/py/nlrx86.o
LOAD build/py/nlrx64.o
LOAD build/py/nlrthumb.o
LOAD build/py/nlraarch64.o
LOAD build/py/nlrpowerpc.o
LOAD build/py/nlrxtensa.o
LOAD build/py/nlrsetjmp.o
LOAD build/py/malloc.o
LOAD build/py/gc.o
LOAD build/py/pystack.o
LOAD build/py/qstr.o
LOAD build/py/vstr.o
LOAD build/py/mpprint.o
LOAD build/py/unicode.o
LOAD build/py/mpz.o
LOAD build/py/reader.o
LOAD build/py/lexer.o
LOAD build/py/parse.o
LOAD build/py/scope.o
LOAD build/py/compile.o
LOAD build/py/emitcommon.o
LOAD build/py/emitbc.o
LOAD build/py/asmbase.o
LOAD build/py/asmx64.o
LOAD build/py/emitnx64.o
LOAD build/py/asmx86.o
LOAD build/py/emitnx86.o
LOAD build/py/asmthumb.o
LOAD build/py/emitnthumb.o
LOAD build/py/emitinlinethumb.o
LOAD build/py/asmarm.o
LOAD build/py/emitnarm.o
LOAD build/py/asmxtensa.o
LOAD build/py/emitnxtensa.o
LOAD build/py/emitinlinextensa.o
LOAD build/py/emitnxtensawin.o
LOAD build/py/formatfloat.o
LOAD build/py/parsenumbase.o
LOAD build/py/parsenum.o
LOAD build/py/emitglue.o
LOAD build/py/persistentcode.o
LOAD build/py/runtime.o
LOAD build/py/runtime_utils.o
LOAD build/py/scheduler.o
LOAD build/py/nativeglue.o
LOAD build/py/pairheap.o
LOAD build/py/ringbuf.o
LOAD build/py/stackctrl.o
LOAD build/py/argcheck.o
LOAD build/py/warning.o
LOAD build/py/profile.o
LOAD build/py/map.o
LOAD build/py/obj.o
LOAD build/py/objarray.o
LOAD build/py/objattrtuple.o
LOAD build/py/objbool.o
LOAD build/py/objboundmeth.o
LOAD build/py/objcell.o
LOAD build/py/objclosure.o
LOAD build/py/objcomplex.o
LOAD build/py/objdeque.o
LOAD build/py/objdict.o
LOAD build/py/objenumerate.o
LOAD build/py/objexcept.o
LOAD build/py/objfilter.o
LOAD build/py/objfloat.o
LOAD build/py/objfun.o
LOAD build/py/objgenerator.o
LOAD build/py/objgetitemiter.o
LOAD build/py/objint.o
LOAD build/py/objint_longlong.o
LOAD build/py/objint_mpz.o
LOAD build/py/objlist.o
LOAD build/py/objmap.o
LOAD build/py/objmodule.o
LOAD build/py/objobject.o
LOAD build/py/objpolyiter.o
LOAD build/py/objproperty.o
LOAD build/py/objnone.o
LOAD build/py/objnamedtuple.o
LOAD build/py/objrange.o
LOAD build/py/objreversed.o
LOAD build/py/objset.o
LOAD build/py/objsingleton.o
LOAD build/py/objslice.o
LOAD build/py/objstr.o
LOAD build/py/objstrunicode.o
LOAD build/py/objstringio.o
LOAD build/py/objtuple.o
LOAD build/py/objtype.o
LOAD build/py/objzip.o
LOAD build/py/opmethods.o
LOAD build/py/sequence.o
LOAD build/py/stream.o
LOAD build/py/binary.o
LOAD build/py/builtinimport.o
LOAD build/py/builtinevex.o
LOAD build/py/builtinhelp.o
LOAD build/py/modarray.o
LOAD build/py/modbuiltins.o
LOAD build/py/modcollections.o
LOAD build/py/modgc.o
LOAD build/py/modio.o
LOAD build/py/modmath.o
LOAD build/py/modcmath.o
LOAD build/py/modmicropython.o
LOAD build/py/modstruct.o
LOAD build/py/modsys.o
LOAD build/py/moduerrno.o
LOAD build/py/modthread.o
LOAD build/py/vm.o
LOAD build/py/bc.o
LOAD build/py/showbc.o
LOAD build/py/repl.o
LOAD build/py/smallint.o
LOAD build/py/frozenmod.o
LOAD build/main.o
LOAD build/uart_core.o
LOAD build/STdriver.o
LOAD build/shared/libc/printf.o
LOAD build/shared/readline/readline.o
LOAD build/shared/runtime/pyexec.o
LOAD build/shared/runtime/stdout_helpers.o
LOAD build/build/_frozen_mpy.o
LOAD build/shared/libc/string0.o
OUTPUT(build/firmware.elf elf32-littlearm)
LOAD linker stubs

.debug_info     0x0000000000000000    0x5bb83
 .debug_info    0x0000000000000000      0x723 build/py/mpstate.o
 .debug_info    0x0000000000000723      0x77d build/py/nlr.o
 .debug_info    0x0000000000000ea0      0x7ba build/py/nlrthumb.o
 .debug_info    0x000000000000165a      0x33c build/py/malloc.o
 .debug_info    0x0000000000001996     0x14e8 build/py/gc.o
 .debug_info    0x0000000000002e7e     0x15de build/py/qstr.o
 .debug_info    0x000000000000445c      0xdc1 build/py/vstr.o
 .debug_info    0x000000000000521d      0xe68 build/py/mpprint.o
 .debug_info    0x0000000000006085      0x2ff build/py/unicode.o
 .debug_info    0x0000000000006384      0x2c1 build/py/reader.o
 .debug_info    0x0000000000006645     0x22fb build/py/lexer.o
 .debug_info    0x0000000000008940     0x30cd build/py/parse.o
 .debug_info    0x000000000000ba0d      0xc9b build/py/scope.o
 .debug_info    0x000000000000c6a8     0x8ab9 build/py/compile.o
 .debug_info    0x0000000000015161      0xad7 build/py/emitcommon.o
 .debug_info    0x0000000000015c38     0x39d0 build/py/emitbc.o
 .debug_info    0x0000000000019608      0x147 build/py/parsenumbase.o
 .debug_info    0x000000000001974f      0xffb build/py/parsenum.o
 .debug_info    0x000000000001a74a      0x6b9 build/py/emitglue.o
 .debug_info    0x000000000001ae03     0x558d build/py/runtime.o
 .debug_info    0x0000000000020390      0x7d8 build/py/scheduler.o
 .debug_info    0x0000000000020b68      0x683 build/py/argcheck.o
 .debug_info    0x00000000000211eb      0x85d build/py/map.o
 .debug_info    0x0000000000021a48     0x227b build/py/obj.o
 .debug_info    0x0000000000023cc3      0xd7a build/py/objbool.o
 .debug_info    0x0000000000024a3d      0x9de build/py/objboundmeth.o
 .debug_info    0x000000000002541b      0x7a1 build/py/objcell.o
 .debug_info    0x0000000000025bbc      0xa24 build/py/objclosure.o
 .debug_info    0x00000000000265e0     0x2b01 build/py/objdict.o
 .debug_info    0x00000000000290e1     0x1fc1 build/py/objexcept.o
 .debug_info    0x000000000002b0a2     0x1c7a build/py/objfun.o
 .debug_info    0x000000000002cd1c     0x1b1a build/py/objgenerator.o
 .debug_info    0x000000000002e836      0x9e1 build/py/objgetitemiter.o
 .debug_info    0x000000000002f217     0x1c90 build/py/objint.o
 .debug_info    0x0000000000030ea7     0x2627 build/py/objlist.o
 .debug_info    0x00000000000334ce      0xa26 build/py/objmap.o
 .debug_info    0x0000000000033ef4     0x128f build/py/objmodule.o
 .debug_info    0x0000000000035183      0x8bc build/py/objobject.o
 .debug_info    0x0000000000035a3f      0x7b2 build/py/objpolyiter.o
 .debug_info    0x00000000000361f1      0x83d build/py/objnone.o
 .debug_info    0x0000000000036a2e     0x104e build/py/objrange.o
 .debug_info    0x0000000000037a7c      0x8ae build/py/objsingleton.o
 .debug_info    0x000000000003832a     0x5da0 build/py/objstr.o
 .debug_info    0x000000000003e0ca     0x1c1f build/py/objtuple.o
 .debug_info    0x000000000003fce9     0x35d6 build/py/objtype.o
 .debug_info    0x00000000000432bf      0xa47 build/py/objzip.o
 .debug_info    0x0000000000043d06      0x726 build/py/opmethods.o
 .debug_info    0x000000000004442c      0xa0d build/py/sequence.o
 .debug_info    0x0000000000044e39     0x18df build/py/stream.o
 .debug_info    0x0000000000046718      0x822 build/py/binary.o
 .debug_info    0x0000000000046f3a     0x2428 build/py/builtinimport.o
 .debug_info    0x0000000000049362     0x1489 build/py/builtinevex.o
 .debug_info    0x000000000004a7eb     0x2ed7 build/py/modbuiltins.o
 .debug_info    0x000000000004d6c2     0x1081 build/py/modmicropython.o
 .debug_info    0x000000000004e743     0x29c4 build/py/vm.o
 .debug_info    0x0000000000051107     0x107c build/py/bc.o
 .debug_info    0x0000000000052183     0x1648 build/py/repl.o
 .debug_info    0x00000000000537cb      0x15f build/py/smallint.o
 .debug_info    0x000000000005392a      0x379 build/py/frozenmod.o
 .debug_info    0x0000000000053ca3     0x1134 build/main.o
 .debug_info    0x0000000000054dd7      0x137 build/uart_core.o
 .debug_info    0x0000000000054f0e     0x1e56 build/STdriver.o
 .debug_info    0x0000000000056d64      0x4e9 build/shared/libc/printf.o
 .debug_info    0x000000000005724d     0x10b6 build/shared/readline/readline.o
 .debug_info    0x0000000000058303     0x2260 build/shared/runtime/pyexec.o
 .debug_info    0x000000000005a563      0x173 build/shared/runtime/stdout_helpers.o
 .debug_info    0x000000000005a6d6      0xb6d build/build/_frozen_mpy.o
 .debug_info    0x000000000005b243      0x940 build/shared/libc/string0.o

.debug_abbrev   0x0000000000000000     0xda3c
 .debug_abbrev  0x0000000000000000      0x169 build/py/mpstate.o
 .debug_abbrev  0x0000000000000169      0x1b9 build/py/nlr.o
 .debug_abbrev  0x0000000000000322      0x1fc build/py/nlrthumb.o
 .debug_abbrev  0x000000000000051e      0x188 build/py/malloc.o
 .debug_abbrev  0x00000000000006a6      0x511 build/py/gc.o
 .debug_abbrev  0x0000000000000bb7      0x4d1 build/py/qstr.o
 .debug_abbrev  0x0000000000001088      0x31e build/py/vstr.o
 .debug_abbrev  0x00000000000013a6      0x368 build/py/mpprint.o
 .debug_abbrev  0x000000000000170e       0xdc build/py/unicode.o
 .debug_abbrev  0x00000000000017ea      0x183 build/py/reader.o
 .debug_abbrev  0x000000000000196d      0x50c build/py/lexer.o
 .debug_abbrev  0x0000000000001e79      0x4eb build/py/parse.o
 .debug_abbrev  0x0000000000002364      0x2b1 build/py/scope.o
 .debug_abbrev  0x0000000000002615      0x5d5 build/py/compile.o
 .debug_abbrev  0x0000000000002bea      0x2a5 build/py/emitcommon.o
 .debug_abbrev  0x0000000000002e8f      0x54c build/py/emitbc.o
 .debug_abbrev  0x00000000000033db       0xaf build/py/parsenumbase.o
 .debug_abbrev  0x000000000000348a      0x2b9 build/py/parsenum.o
 .debug_abbrev  0x0000000000003743      0x22a build/py/emitglue.o
 .debug_abbrev  0x000000000000396d      0x736 build/py/runtime.o
 .debug_abbrev  0x00000000000040a3      0x1ee build/py/scheduler.o
 .debug_abbrev  0x0000000000004291      0x2ba build/py/argcheck.o
 .debug_abbrev  0x000000000000454b      0x2ee build/py/map.o
 .debug_abbrev  0x0000000000004839      0x52f build/py/obj.o
 .debug_abbrev  0x0000000000004d68      0x28b build/py/objbool.o
 .debug_abbrev  0x0000000000004ff3      0x1cb build/py/objboundmeth.o
 .debug_abbrev  0x00000000000051be      0x179 build/py/objcell.o
 .debug_abbrev  0x0000000000005337      0x20d build/py/objclosure.o
 .debug_abbrev  0x0000000000005544      0x60c build/py/objdict.o
 .debug_abbrev  0x0000000000005b50      0x521 build/py/objexcept.o
 .debug_abbrev  0x0000000000006071      0x4ad build/py/objfun.o
 .debug_abbrev  0x000000000000651e      0x452 build/py/objgenerator.o
 .debug_abbrev  0x0000000000006970      0x263 build/py/objgetitemiter.o
 .debug_abbrev  0x0000000000006bd3      0x4bb build/py/objint.o
 .debug_abbrev  0x000000000000708e      0x5f4 build/py/objlist.o
 .debug_abbrev  0x0000000000007682      0x1fa build/py/objmap.o
 .debug_abbrev  0x000000000000787c      0x31b build/py/objmodule.o
 .debug_abbrev  0x0000000000007b97      0x1b7 build/py/objobject.o
 .debug_abbrev  0x0000000000007d4e      0x164 build/py/objpolyiter.o
 .debug_abbrev  0x0000000000007eb2      0x174 build/py/objnone.o
 .debug_abbrev  0x0000000000008026      0x3a3 build/py/objrange.o
 .debug_abbrev  0x00000000000083c9      0x19b build/py/objsingleton.o
 .debug_abbrev  0x0000000000008564      0x68b build/py/objstr.o
 .debug_abbrev  0x0000000000008bef      0x4d9 build/py/objtuple.o
 .debug_abbrev  0x00000000000090c8      0x625 build/py/objtype.o
 .debug_abbrev  0x00000000000096ed      0x1ec build/py/objzip.o
 .debug_abbrev  0x00000000000098d9      0x1cd build/py/opmethods.o
 .debug_abbrev  0x0000000000009aa6      0x257 build/py/sequence.o
 .debug_abbrev  0x0000000000009cfd      0x477 build/py/stream.o
 .debug_abbrev  0x000000000000a174      0x278 build/py/binary.o
 .debug_abbrev  0x000000000000a3ec      0x5b3 build/py/builtinimport.o
 .debug_abbrev  0x000000000000a99f      0x330 build/py/builtinevex.o
 .debug_abbrev  0x000000000000accf      0x5b1 build/py/modbuiltins.o
 .debug_abbrev  0x000000000000b280      0x283 build/py/modmicropython.o
 .debug_abbrev  0x000000000000b503      0x3c5 build/py/vm.o
 .debug_abbrev  0x000000000000b8c8      0x3fc build/py/bc.o
 .debug_abbrev  0x000000000000bcc4      0x3f1 build/py/repl.o
 .debug_abbrev  0x000000000000c0b5       0xac build/py/smallint.o
 .debug_abbrev  0x000000000000c161      0x1a2 build/py/frozenmod.o
 .debug_abbrev  0x000000000000c303      0x2ae build/main.o
 .debug_abbrev  0x000000000000c5b1       0xd2 build/uart_core.o
 .debug_abbrev  0x000000000000c683      0x48e build/STdriver.o
 .debug_abbrev  0x000000000000cb11      0x1d8 build/shared/libc/printf.o
 .debug_abbrev  0x000000000000cce9      0x447 build/shared/readline/readline.o
 .debug_abbrev  0x000000000000d130      0x4e8 build/shared/runtime/pyexec.o
 .debug_abbrev  0x000000000000d618       0xeb build/shared/runtime/stdout_helpers.o
 .debug_abbrev  0x000000000000d703      0x14b build/build/_frozen_mpy.o
 .debug_abbrev  0x000000000000d84e      0x1ee build/shared/libc/string0.o

.debug_aranges  0x0000000000000000     0x1e08
 .debug_aranges
                0x0000000000000000       0x18 build/py/mpstate.o
 .debug_aranges
                0x0000000000000018       0x28 build/py/nlr.o
 .debug_aranges
                0x0000000000000040       0x28 build/py/nlrthumb.o
 .debug_aranges
                0x0000000000000068       0x48 build/py/malloc.o
 .debug_aranges
                0x00000000000000b0       0x98 build/py/gc.o
 .debug_aranges
                0x0000000000000148       0x78 build/py/qstr.o
 .debug_aranges
                0x00000000000001c0       0xd8 build/py/vstr.o
 .debug_aranges
                0x0000000000000298       0x50 build/py/mpprint.o
 .debug_aranges
                0x00000000000002e8       0x70 build/py/unicode.o
 .debug_aranges
                0x0000000000000358       0x30 build/py/reader.o
 .debug_aranges
                0x0000000000000388       0x50 build/py/lexer.o
 .debug_aranges
                0x00000000000003d8       0x80 build/py/parse.o
 .debug_aranges
                0x0000000000000458       0x48 build/py/scope.o
 .debug_aranges
                0x00000000000004a0      0x258 build/py/compile.o
 .debug_aranges
                0x00000000000006f8       0x40 build/py/emitcommon.o
 .debug_aranges
                0x0000000000000738      0x220 build/py/emitbc.o
 .debug_aranges
                0x0000000000000958       0x20 build/py/parsenumbase.o
 .debug_aranges
                0x0000000000000978       0x30 build/py/parsenum.o
 .debug_aranges
                0x00000000000009a8       0x38 build/py/emitglue.o
 .debug_aranges
                0x00000000000009e0      0x180 build/py/runtime.o
 .debug_aranges
                0x0000000000000b60       0x28 build/py/scheduler.o
 .debug_aranges
                0x0000000000000b88       0x38 build/py/argcheck.o
 .debug_aranges
                0x0000000000000bc0       0x48 build/py/map.o
 .debug_aranges
                0x0000000000000c08       0xd8 build/py/obj.o
 .debug_aranges
                0x0000000000000ce0       0x38 build/py/objbool.o
 .debug_aranges
                0x0000000000000d18       0x30 build/py/objboundmeth.o
 .debug_aranges
                0x0000000000000d48       0x20 build/py/objcell.o
 .debug_aranges
                0x0000000000000d68       0x28 build/py/objclosure.o
 .debug_aranges
                0x0000000000000d90      0x108 build/py/objdict.o
 .debug_aranges
                0x0000000000000e98       0xb0 build/py/objexcept.o
 .debug_aranges
                0x0000000000000f48       0x58 build/py/objfun.o
 .debug_aranges
                0x0000000000000fa0       0x58 build/py/objgenerator.o
 .debug_aranges
                0x0000000000000ff8       0x28 build/py/objgetitemiter.o
 .debug_aranges
                0x0000000000001020       0x98 build/py/objint.o
 .debug_aranges
                0x00000000000010b8       0xe8 build/py/objlist.o
 .debug_aranges
                0x00000000000011a0       0x28 build/py/objmap.o
 .debug_aranges
                0x00000000000011c8       0x40 build/py/objmodule.o
 .debug_aranges
                0x0000000000001208       0x20 build/py/objobject.o
 .debug_aranges
                0x0000000000001228       0x20 build/py/objpolyiter.o
 .debug_aranges
                0x0000000000001248       0x20 build/py/objnone.o
 .debug_aranges
                0x0000000000001268       0x48 build/py/objrange.o
 .debug_aranges
                0x00000000000012b0       0x20 build/py/objsingleton.o
 .debug_aranges
                0x00000000000012d0      0x1e8 build/py/objstr.o
 .debug_aranges
                0x00000000000014b8       0x78 build/py/objtuple.o
 .debug_aranges
                0x0000000000001530       0xf8 build/py/objtype.o
 .debug_aranges
                0x0000000000001628       0x28 build/py/objzip.o
 .debug_aranges
                0x0000000000001650       0x38 build/py/opmethods.o
 .debug_aranges
                0x0000000000001688       0x48 build/py/sequence.o
 .debug_aranges
                0x00000000000016d0       0xb0 build/py/stream.o
 .debug_aranges
                0x0000000000001780       0x58 build/py/binary.o
 .debug_aranges
                0x00000000000017d8       0x48 build/py/builtinimport.o
 .debug_aranges
                0x0000000000001820       0x30 build/py/builtinevex.o
 .debug_aranges
                0x0000000000001850       0xf0 build/py/modbuiltins.o
 .debug_aranges
                0x0000000000001940       0x30 build/py/modmicropython.o
 .debug_aranges
                0x0000000000001970       0x20 build/py/vm.o
 .debug_aranges
                0x0000000000001990       0x40 build/py/bc.o
 .debug_aranges
                0x00000000000019d0       0x38 build/py/repl.o
 .debug_aranges
                0x0000000000001a08       0x30 build/py/smallint.o
 .debug_aranges
                0x0000000000001a38       0x20 build/py/frozenmod.o
 .debug_aranges
                0x0000000000001a58       0x70 build/main.o
 .debug_aranges
                0x0000000000001ac8       0x28 build/uart_core.o
 .debug_aranges
                0x0000000000001af0      0x140 build/STdriver.o
 .debug_aranges
                0x0000000000001c30       0x50 build/shared/libc/printf.o
 .debug_aranges
                0x0000000000001c80       0x50 build/shared/readline/readline.o
 .debug_aranges
                0x0000000000001cd0       0x58 build/shared/runtime/pyexec.o
 .debug_aranges
                0x0000000000001d28       0x28 build/shared/runtime/stdout_helpers.o
 .debug_aranges
                0x0000000000001d50       0x18 build/build/_frozen_mpy.o
 .debug_aranges
                0x0000000000001d68       0xa0 build/shared/libc/string0.o

.debug_line     0x0000000000000000    0x1f63d
 .debug_line    0x0000000000000000       0xf9 build/py/mpstate.o
 .debug_line    0x00000000000000f9      0x145 build/py/nlr.o
 .debug_line    0x000000000000023e      0x153 build/py/nlrthumb.o
 .debug_line    0x0000000000000391      0x14f build/py/malloc.o
 .debug_line    0x00000000000004e0      0xdce build/py/gc.o
 .debug_line    0x00000000000012ae      0x853 build/py/qstr.o
 .debug_line    0x0000000000001b01      0x5ce build/py/vstr.o
 .debug_line    0x00000000000020cf      0x92a build/py/mpprint.o
 .debug_line    0x00000000000029f9      0x253 build/py/unicode.o
 .debug_line    0x0000000000002c4c      0x194 build/py/reader.o
 .debug_line    0x0000000000002de0      0xe2f build/py/lexer.o
 .debug_line    0x0000000000003c0f      0xda0 build/py/parse.o
 .debug_line    0x00000000000049af      0x342 build/py/scope.o
 .debug_line    0x0000000000004cf1     0x3a29 build/py/compile.o
 .debug_line    0x000000000000871a      0x2c5 build/py/emitcommon.o
 .debug_line    0x00000000000089df     0x11c7 build/py/emitbc.o
 .debug_line    0x0000000000009ba6      0x172 build/py/parsenumbase.o
 .debug_line    0x0000000000009d18      0x3bc build/py/parsenum.o
 .debug_line    0x000000000000a0d4      0x1bf build/py/emitglue.o
 .debug_line    0x000000000000a293     0x2420 build/py/runtime.o
 .debug_line    0x000000000000c6b3      0x1ae build/py/scheduler.o
 .debug_line    0x000000000000c861      0x28b build/py/argcheck.o
 .debug_line    0x000000000000caec      0x504 build/py/map.o
 .debug_line    0x000000000000cff0      0xdc8 build/py/obj.o
 .debug_line    0x000000000000ddb8      0x1ae build/py/objbool.o
 .debug_line    0x000000000000df66      0x187 build/py/objboundmeth.o
 .debug_line    0x000000000000e0ed       0xaf build/py/objcell.o
 .debug_line    0x000000000000e19c      0x176 build/py/objclosure.o
 .debug_line    0x000000000000e312      0xbe3 build/py/objdict.o
 .debug_line    0x000000000000eef5      0x8ed build/py/objexcept.o
 .debug_line    0x000000000000f7e2      0x567 build/py/objfun.o
 .debug_line    0x000000000000fd49      0x5dc build/py/objgenerator.o
 .debug_line    0x0000000000010325      0x164 build/py/objgetitemiter.o
 .debug_line    0x0000000000010489      0x9b5 build/py/objint.o
 .debug_line    0x0000000000010e3e      0xbe6 build/py/objlist.o
 .debug_line    0x0000000000011a24      0x1d3 build/py/objmap.o
 .debug_line    0x0000000000011bf7      0x31f build/py/objmodule.o
 .debug_line    0x0000000000011f16       0xcf build/py/objobject.o
 .debug_line    0x0000000000011fe5       0x98 build/py/objpolyiter.o
 .debug_line    0x000000000001207d       0xb0 build/py/objnone.o
 .debug_line    0x000000000001212d      0x416 build/py/objrange.o
 .debug_line    0x0000000000012543       0xb4 build/py/objsingleton.o
 .debug_line    0x00000000000125f7     0x304c build/py/objstr.o
 .debug_line    0x0000000000015643      0x596 build/py/objtuple.o
 .debug_line    0x0000000000015bd9     0x1553 build/py/objtype.o
 .debug_line    0x000000000001712c      0x1d0 build/py/objzip.o
 .debug_line    0x00000000000172fc      0x137 build/py/opmethods.o
 .debug_line    0x0000000000017433      0x4a4 build/py/sequence.o
 .debug_line    0x00000000000178d7      0x889 build/py/stream.o
 .debug_line    0x0000000000018160      0x4fb build/py/binary.o
 .debug_line    0x000000000001865b      0x83b build/py/builtinimport.o
 .debug_line    0x0000000000018e96      0x23d build/py/builtinevex.o
 .debug_line    0x00000000000190d3      0xa54 build/py/modbuiltins.o
 .debug_line    0x0000000000019b27      0x1d8 build/py/modmicropython.o
 .debug_line    0x0000000000019cff     0x178d build/py/vm.o
 .debug_line    0x000000000001b48c      0x793 build/py/bc.o
 .debug_line    0x000000000001bc1f      0x6be build/py/repl.o
 .debug_line    0x000000000001c2dd      0x17b build/py/smallint.o
 .debug_line    0x000000000001c458      0x1d8 build/py/frozenmod.o
 .debug_line    0x000000000001c630      0x363 build/main.o
 .debug_line    0x000000000001c993       0xd0 build/uart_core.o
 .debug_line    0x000000000001ca63      0xfdc build/STdriver.o
 .debug_line    0x000000000001da3f      0x23f build/shared/libc/printf.o
 .debug_line    0x000000000001dc7e      0x82f build/shared/readline/readline.o
 .debug_line    0x000000000001e4ad      0x90a build/shared/runtime/pyexec.o
 .debug_line    0x000000000001edb7      0x130 build/shared/runtime/stdout_helpers.o
 .debug_line    0x000000000001eee7       0xd2 build/build/_frozen_mpy.o
 .debug_line    0x000000000001efb9      0x684 build/shared/libc/string0.o

.debug_str      0x0000000000000000     0xdaff
 .debug_str     0x0000000000000000      0x555 build/py/mpstate.o
                                        0x6e3 (size before relaxing)
 .debug_str     0x0000000000000555       0x25 build/py/nlr.o
                                        0x6f5 (size before relaxing)
 .debug_str     0x000000000000057a      0x10f build/py/nlrthumb.o
                                        0x711 (size before relaxing)
 .debug_str     0x0000000000000689       0x99 build/py/malloc.o
                                        0x240 (size before relaxing)
 .debug_str     0x0000000000000722      0x32d build/py/gc.o
                                        0xaaa (size before relaxing)
 .debug_str     0x0000000000000a4f      0xfee build/py/qstr.o
                                       0x1766 (size before relaxing)
 .debug_str     0x0000000000001a3d      0x1d0 build/py/vstr.o
                                        0x597 (size before relaxing)
 .debug_str     0x0000000000001c0d      0x1a0 build/py/mpprint.o
                                        0x583 (size before relaxing)
 .debug_str     0x0000000000001dad       0xc9 build/py/unicode.o
                                        0x286 (size before relaxing)
 .debug_str     0x0000000000001e76       0x7d build/py/reader.o
                                        0x278 (size before relaxing)
 .debug_str     0x0000000000001ef3      0xaa5 build/py/lexer.o
                                       0x136f (size before relaxing)
 .debug_str     0x0000000000002998     0x2c67 build/py/parse.o
                                       0x478b (size before relaxing)
 .debug_str     0x00000000000055ff      0x2d6 build/py/scope.o
                                       0x136b (size before relaxing)
 .debug_str     0x00000000000058d5     0x2642 build/py/compile.o
                                       0x4951 (size before relaxing)
 .debug_str     0x0000000000007f17       0xba build/py/emitcommon.o
                                        0x906 (size before relaxing)
 .debug_str     0x0000000000007fd1      0x401 build/py/emitbc.o
                                       0x2ce1 (size before relaxing)
 .debug_str     0x00000000000083d2       0x34 build/py/parsenumbase.o
                                        0x1e1 (size before relaxing)
 .debug_str     0x0000000000008406       0xae build/py/parsenum.o
                                       0x1b0d (size before relaxing)
 .debug_str     0x00000000000084b4       0xd8 build/py/emitglue.o
                                        0x5e6 (size before relaxing)
 .debug_str     0x000000000000858c      0xbfc build/py/runtime.o
                                       0x3512 (size before relaxing)
 .debug_str     0x0000000000009188       0x47 build/py/scheduler.o
                                        0x74b (size before relaxing)
 .debug_str     0x00000000000091cf      0x18a build/py/argcheck.o
                                        0x518 (size before relaxing)
 .debug_str     0x0000000000009359       0xc2 build/py/map.o
                                        0x683 (size before relaxing)
 .debug_str     0x000000000000941b      0x321 build/py/obj.o
                                       0x1d5d (size before relaxing)
 .debug_str     0x000000000000973c       0x7d build/py/objbool.o
                                       0x18c9 (size before relaxing)
 .debug_str     0x00000000000097b9       0x7c build/py/objboundmeth.o
                                       0x1210 (size before relaxing)
 .debug_str     0x0000000000009835       0x3f build/py/objcell.o
                                       0x1143 (size before relaxing)
 .debug_str     0x0000000000009874       0x4e build/py/objclosure.o
                                       0x11ee (size before relaxing)
 .debug_str     0x00000000000098c2      0x427 build/py/objdict.o
                                       0x211e (size before relaxing)
 .debug_str     0x0000000000009ce9      0x279 build/py/objexcept.o
                                       0x1cd5 (size before relaxing)
 .debug_str     0x0000000000009f62      0x1bb build/py/objfun.o
                                       0x1a71 (size before relaxing)
 .debug_str     0x000000000000a11d      0x186 build/py/objgenerator.o
                                       0x1c59 (size before relaxing)
 .debug_str     0x000000000000a2a3       0x3c build/py/objgetitemiter.o
                                       0x1241 (size before relaxing)
 .debug_str     0x000000000000a2df      0x1d3 build/py/objint.o
                                       0x1e55 (size before relaxing)
 .debug_str     0x000000000000a4b2      0x2cd build/py/objlist.o
                                       0x2003 (size before relaxing)
 .debug_str     0x000000000000a77f       0x56 build/py/objmap.o
                                       0x1214 (size before relaxing)
 .debug_str     0x000000000000a7d5       0xff build/py/objmodule.o
                                       0x18bb (size before relaxing)
 .debug_str     0x000000000000a8d4       0x45 build/py/objobject.o
                                       0x11b1 (size before relaxing)
 .debug_str     0x000000000000a919       0x46 build/py/objpolyiter.o
                                       0x1177 (size before relaxing)
 .debug_str     0x000000000000a95f       0x1e build/py/objnone.o
                                       0x11c5 (size before relaxing)
 .debug_str     0x000000000000a97d       0xd1 build/py/objrange.o
                                       0x14ed (size before relaxing)
 .debug_str     0x000000000000aa4e       0x3a build/py/objsingleton.o
                                       0x1214 (size before relaxing)
 .debug_str     0x000000000000aa88      0x7d4 build/py/objstr.o
                                       0x27f2 (size before relaxing)
 .debug_str     0x000000000000b25c      0x168 build/py/objtuple.o
                                       0x1dbc (size before relaxing)
 .debug_str     0x000000000000b3c4      0x3cf build/py/objtype.o
                                       0x233c (size before relaxing)
 .debug_str     0x000000000000b793       0x46 build/py/objzip.o
                                       0x1233 (size before relaxing)
 .debug_str     0x000000000000b7d9       0x65 build/py/opmethods.o
                                        0x95d (size before relaxing)
 .debug_str     0x000000000000b83e       0x84 build/py/sequence.o
                                        0x9cf (size before relaxing)
 .debug_str     0x000000000000b8c2      0x2fc build/py/stream.o
                                        0xa1e (size before relaxing)
 .debug_str     0x000000000000bbbe       0xdd build/py/binary.o
                                        0x3e5 (size before relaxing)
 .debug_str     0x000000000000bc9b      0x305 build/py/builtinimport.o
                                       0x25a7 (size before relaxing)
 .debug_str     0x000000000000bfa0       0x70 build/py/builtinevex.o
                                       0x1f83 (size before relaxing)
 .debug_str     0x000000000000c010      0x4d4 build/py/modbuiltins.o
                                       0x2a83 (size before relaxing)
 .debug_str     0x000000000000c4e4      0x102 build/py/modmicropython.o
                                       0x17af (size before relaxing)
 .debug_str     0x000000000000c5e6      0x167 build/py/vm.o
                                       0x234d (size before relaxing)
 .debug_str     0x000000000000c74d       0xf2 build/py/bc.o
                                        0x84e (size before relaxing)
 .debug_str     0x000000000000c83f      0x108 build/py/repl.o
                                       0x17bd (size before relaxing)
 .debug_str     0x000000000000c947       0x2b build/py/smallint.o
                                        0x228 (size before relaxing)
 .debug_str     0x000000000000c972       0x4d build/py/frozenmod.o
                                        0x37b (size before relaxing)
 .debug_str     0x000000000000c9bf       0xdc build/main.o
                                       0x1c01 (size before relaxing)
 .debug_str     0x000000000000ca9b       0x48 build/uart_core.o
                                        0x1f1 (size before relaxing)
 .debug_str     0x000000000000cae3      0x8ae build/STdriver.o
                                        0xb0e (size before relaxing)
 .debug_str     0x000000000000d391       0x5b build/shared/libc/printf.o
                                        0x2e6 (size before relaxing)
 .debug_str     0x000000000000d3ec      0x232 build/shared/readline/readline.o
                                        0xaea (size before relaxing)
 .debug_str     0x000000000000d61e      0x1e1 build/shared/runtime/pyexec.o
                                       0x245f (size before relaxing)
 .debug_str     0x000000000000d7ff       0x26 build/shared/runtime/stdout_helpers.o
                                        0x210 (size before relaxing)
 .debug_str     0x000000000000d825      0x162 build/build/_frozen_mpy.o
                                       0x14a6 (size before relaxing)
 .debug_str     0x000000000000d987      0x178 build/shared/libc/string0.o
                                        0x2b2 (size before relaxing)

.comment        0x0000000000000000       0x33
 .comment       0x0000000000000000       0x33 build/py/mpstate.o
                                         0x34 (size before relaxing)
 .comment       0x0000000000000033       0x34 build/py/nlr.o
 .comment       0x0000000000000033       0x34 build/py/nlrthumb.o
 .comment       0x0000000000000033       0x34 build/py/malloc.o
 .comment       0x0000000000000033       0x34 build/py/gc.o
 .comment       0x0000000000000033       0x34 build/py/qstr.o
 .comment       0x0000000000000033       0x34 build/py/vstr.o
 .comment       0x0000000000000033       0x34 build/py/mpprint.o
 .comment       0x0000000000000033       0x34 build/py/unicode.o
 .comment       0x0000000000000033       0x34 build/py/reader.o
 .comment       0x0000000000000033       0x34 build/py/lexer.o
 .comment       0x0000000000000033       0x34 build/py/parse.o
 .comment       0x0000000000000033       0x34 build/py/scope.o
 .comment       0x0000000000000033       0x34 build/py/compile.o
 .comment       0x0000000000000033       0x34 build/py/emitcommon.o
 .comment       0x0000000000000033       0x34 build/py/emitbc.o
 .comment       0x0000000000000033       0x34 build/py/parsenumbase.o
 .comment       0x0000000000000033       0x34 build/py/parsenum.o
 .comment       0x0000000000000033       0x34 build/py/emitglue.o
 .comment       0x0000000000000033       0x34 build/py/runtime.o
 .comment       0x0000000000000033       0x34 build/py/scheduler.o
 .comment       0x0000000000000033       0x34 build/py/argcheck.o
 .comment       0x0000000000000033       0x34 build/py/map.o
 .comment       0x0000000000000033       0x34 build/py/obj.o
 .comment       0x0000000000000033       0x34 build/py/objbool.o
 .comment       0x0000000000000033       0x34 build/py/objboundmeth.o
 .comment       0x0000000000000033       0x34 build/py/objcell.o
 .comment       0x0000000000000033       0x34 build/py/objclosure.o
 .comment       0x0000000000000033       0x34 build/py/objdict.o
 .comment       0x0000000000000033       0x34 build/py/objexcept.o
 .comment       0x0000000000000033       0x34 build/py/objfun.o
 .comment       0x0000000000000033       0x34 build/py/objgenerator.o
 .comment       0x0000000000000033       0x34 build/py/objgetitemiter.o
 .comment       0x0000000000000033       0x34 build/py/objint.o
 .comment       0x0000000000000033       0x34 build/py/objlist.o
 .comment       0x0000000000000033       0x34 build/py/objmap.o
 .comment       0x0000000000000033       0x34 build/py/objmodule.o
 .comment       0x0000000000000033       0x34 build/py/objobject.o
 .comment       0x0000000000000033       0x34 build/py/objpolyiter.o
 .comment       0x0000000000000033       0x34 build/py/objnone.o
 .comment       0x0000000000000033       0x34 build/py/objrange.o
 .comment       0x0000000000000033       0x34 build/py/objsingleton.o
 .comment       0x0000000000000033       0x34 build/py/objstr.o
 .comment       0x0000000000000033       0x34 build/py/objtuple.o
 .comment       0x0000000000000033       0x34 build/py/objtype.o
 .comment       0x0000000000000033       0x34 build/py/objzip.o
 .comment       0x0000000000000033       0x34 build/py/opmethods.o
 .comment       0x0000000000000033       0x34 build/py/sequence.o
 .comment       0x0000000000000033       0x34 build/py/stream.o
 .comment       0x0000000000000033       0x34 build/py/binary.o
 .comment       0x0000000000000033       0x34 build/py/builtinimport.o
 .comment       0x0000000000000033       0x34 build/py/builtinevex.o
 .comment       0x0000000000000033       0x34 build/py/modbuiltins.o
 .comment       0x0000000000000033       0x34 build/py/modmicropython.o
 .comment       0x0000000000000033       0x34 build/py/vm.o
 .comment       0x0000000000000033       0x34 build/py/bc.o
 .comment       0x0000000000000033       0x34 build/py/repl.o
 .comment       0x0000000000000033       0x34 build/py/smallint.o
 .comment       0x0000000000000033       0x34 build/py/frozenmod.o
 .comment       0x0000000000000033       0x34 build/main.o
 .comment       0x0000000000000033       0x34 build/uart_core.o
 .comment       0x0000000000000033       0x34 build/STdriver.o
 .comment       0x0000000000000033       0x34 build/shared/libc/printf.o
 .comment       0x0000000000000033       0x34 build/shared/readline/readline.o
 .comment       0x0000000000000033       0x34 build/shared/runtime/pyexec.o
 .comment       0x0000000000000033       0x34 build/shared/runtime/stdout_helpers.o
 .comment       0x0000000000000033       0x34 build/build/_frozen_mpy.o
 .comment       0x0000000000000033       0x34 build/shared/libc/string0.o

.debug_loc      0x0000000000000000    0x2da44
 .debug_loc     0x0000000000000000       0x23 build/py/nlr.o
 .debug_loc     0x0000000000000023       0x79 build/py/nlrthumb.o
 .debug_loc     0x000000000000009c      0x1a0 build/py/malloc.o
 .debug_loc     0x000000000000023c      0xd79 build/py/gc.o
 .debug_loc     0x0000000000000fb5      0xa0a build/py/qstr.o
 .debug_loc     0x00000000000019bf      0x92d build/py/vstr.o
 .debug_loc     0x00000000000022ec     0x104f build/py/mpprint.o
 .debug_loc     0x000000000000333b      0x22c build/py/unicode.o
 .debug_loc     0x0000000000003567      0x1a1 build/py/reader.o
 .debug_loc     0x0000000000003708      0xe59 build/py/lexer.o
 .debug_loc     0x0000000000004561     0x156a build/py/parse.o
 .debug_loc     0x0000000000005acb      0x37a build/py/scope.o
 .debug_loc     0x0000000000005e45     0x6a2c build/py/compile.o
 .debug_loc     0x000000000000c871      0x45b build/py/emitcommon.o
 .debug_loc     0x000000000000cccc     0x2b46 build/py/emitbc.o
 .debug_loc     0x000000000000f812      0x1ae build/py/parsenumbase.o
 .debug_loc     0x000000000000f9c0      0x3a8 build/py/parsenum.o
 .debug_loc     0x000000000000fd68      0x1a8 build/py/emitglue.o
 .debug_loc     0x000000000000ff10     0x2f7b build/py/runtime.o
 .debug_loc     0x0000000000012e8b       0x50 build/py/scheduler.o
 .debug_loc     0x0000000000012edb      0x2e7 build/py/argcheck.o
 .debug_loc     0x00000000000131c2      0x4cb build/py/map.o
 .debug_loc     0x000000000001368d     0x1178 build/py/obj.o
 .debug_loc     0x0000000000014805      0x3e6 build/py/objbool.o
 .debug_loc     0x0000000000014beb      0x2fa build/py/objboundmeth.o
 .debug_loc     0x0000000000014ee5       0x45 build/py/objcell.o
 .debug_loc     0x0000000000014f2a      0x2b5 build/py/objclosure.o
 .debug_loc     0x00000000000151df     0x1674 build/py/objdict.o
 .debug_loc     0x0000000000016853      0xde1 build/py/objexcept.o
 .debug_loc     0x0000000000017634      0xe97 build/py/objfun.o
 .debug_loc     0x00000000000184cb      0x772 build/py/objgenerator.o
 .debug_loc     0x0000000000018c3d       0xd7 build/py/objgetitemiter.o
 .debug_loc     0x0000000000018d14      0xeaf build/py/objint.o
 .debug_loc     0x0000000000019bc3     0x1508 build/py/objlist.o
 .debug_loc     0x000000000001b0cb      0x2cc build/py/objmap.o
 .debug_loc     0x000000000001b397      0x379 build/py/objmodule.o
 .debug_loc     0x000000000001b710      0x142 build/py/objobject.o
 .debug_loc     0x000000000001b852       0x4a build/py/objpolyiter.o
 .debug_loc     0x000000000001b89c       0x6f build/py/objnone.o
 .debug_loc     0x000000000001b90b      0x757 build/py/objrange.o
 .debug_loc     0x000000000001c062       0x94 build/py/objsingleton.o
 .debug_loc     0x000000000001c0f6     0x46a3 build/py/objstr.o
 .debug_loc     0x0000000000020799      0xe5d build/py/objtuple.o
 .debug_loc     0x00000000000215f6     0x1d49 build/py/objtype.o
 .debug_loc     0x000000000002333f      0x25d build/py/objzip.o
 .debug_loc     0x000000000002359c      0x28b build/py/opmethods.o
 .debug_loc     0x0000000000023827      0x854 build/py/sequence.o
 .debug_loc     0x000000000002407b      0xddd build/py/stream.o
 .debug_loc     0x0000000000024e58      0x990 build/py/binary.o
 .debug_loc     0x00000000000257e8      0xba1 build/py/builtinimport.o
 .debug_loc     0x0000000000026389      0x1cd build/py/builtinevex.o
 .debug_loc     0x0000000000026556      0xd36 build/py/modbuiltins.o
 .debug_loc     0x000000000002728c       0xa9 build/py/modmicropython.o
 .debug_loc     0x0000000000027335     0x1b55 build/py/vm.o
 .debug_loc     0x0000000000028e8a      0xdb7 build/py/bc.o
 .debug_loc     0x0000000000029c41      0x91c build/py/repl.o
 .debug_loc     0x000000000002a55d      0x10c build/py/smallint.o
 .debug_loc     0x000000000002a669      0x10b build/py/frozenmod.o
 .debug_loc     0x000000000002a774      0x16e build/main.o
 .debug_loc     0x000000000002a8e2       0x4a build/uart_core.o
 .debug_loc     0x000000000002a92c     0x11e5 build/STdriver.o
 .debug_loc     0x000000000002bb11      0x23e build/shared/libc/printf.o
 .debug_loc     0x000000000002bd4f      0x7ed build/shared/readline/readline.o
 .debug_loc     0x000000000002c53c      0x707 build/shared/runtime/pyexec.o
 .debug_loc     0x000000000002cc43      0x10a build/shared/runtime/stdout_helpers.o
 .debug_loc     0x000000000002cd4d      0xcf7 build/shared/libc/string0.o

.debug_ranges   0x0000000000000000     0x5f78
 .debug_ranges  0x0000000000000000       0x18 build/py/nlr.o
 .debug_ranges  0x0000000000000018       0x18 build/py/nlrthumb.o
 .debug_ranges  0x0000000000000030       0x38 build/py/malloc.o
 .debug_ranges  0x0000000000000068      0x2f8 build/py/gc.o
 .debug_ranges  0x0000000000000360      0x1d0 build/py/qstr.o
 .debug_ranges  0x0000000000000530       0xe0 build/py/vstr.o
 .debug_ranges  0x0000000000000610       0xb8 build/py/mpprint.o
 .debug_ranges  0x00000000000006c8       0x60 build/py/unicode.o
 .debug_ranges  0x0000000000000728       0x20 build/py/reader.o
 .debug_ranges  0x0000000000000748      0x250 build/py/lexer.o
 .debug_ranges  0x0000000000000998      0x318 build/py/parse.o
 .debug_ranges  0x0000000000000cb0       0xf0 build/py/scope.o
 .debug_ranges  0x0000000000000da0     0x1308 build/py/compile.o
 .debug_ranges  0x00000000000020a8       0x50 build/py/emitcommon.o
 .debug_ranges  0x00000000000020f8      0x510 build/py/emitbc.o
 .debug_ranges  0x0000000000002608       0x10 build/py/parsenumbase.o
 .debug_ranges  0x0000000000002618       0x38 build/py/parsenum.o
 .debug_ranges  0x0000000000002650       0x28 build/py/emitglue.o
 .debug_ranges  0x0000000000002678      0x690 build/py/runtime.o
 .debug_ranges  0x0000000000002d08       0x18 build/py/scheduler.o
 .debug_ranges  0x0000000000002d20       0x90 build/py/argcheck.o
 .debug_ranges  0x0000000000002db0       0x78 build/py/map.o
 .debug_ranges  0x0000000000002e28      0x210 build/py/obj.o
 .debug_ranges  0x0000000000003038       0x78 build/py/objbool.o
 .debug_ranges  0x00000000000030b0       0x20 build/py/objboundmeth.o
 .debug_ranges  0x00000000000030d0       0x10 build/py/objcell.o
 .debug_ranges  0x00000000000030e0       0x38 build/py/objclosure.o
 .debug_ranges  0x0000000000003118      0x2d0 build/py/objdict.o
 .debug_ranges  0x00000000000033e8      0x100 build/py/objexcept.o
 .debug_ranges  0x00000000000034e8      0x128 build/py/objfun.o
 .debug_ranges  0x0000000000003610       0xd8 build/py/objgenerator.o
 .debug_ranges  0x00000000000036e8       0x18 build/py/objgetitemiter.o
 .debug_ranges  0x0000000000003700      0x140 build/py/objint.o
 .debug_ranges  0x0000000000003840      0x1e8 build/py/objlist.o
 .debug_ranges  0x0000000000003a28       0x78 build/py/objmap.o
 .debug_ranges  0x0000000000003aa0       0x90 build/py/objmodule.o
 .debug_ranges  0x0000000000003b30       0x10 build/py/objobject.o
 .debug_ranges  0x0000000000003b40       0x10 build/py/objpolyiter.o
 .debug_ranges  0x0000000000003b50       0x10 build/py/objnone.o
 .debug_ranges  0x0000000000003b60       0xa0 build/py/objrange.o
 .debug_ranges  0x0000000000003c00       0x10 build/py/objsingleton.o
 .debug_ranges  0x0000000000003c10      0x808 build/py/objstr.o
 .debug_ranges  0x0000000000004418      0x120 build/py/objtuple.o
 .debug_ranges  0x0000000000004538      0x300 build/py/objtype.o
 .debug_ranges  0x0000000000004838       0x80 build/py/objzip.o
 .debug_ranges  0x00000000000048b8       0x28 build/py/opmethods.o
 .debug_ranges  0x00000000000048e0       0xc0 build/py/sequence.o
 .debug_ranges  0x00000000000049a0      0x108 build/py/stream.o
 .debug_ranges  0x0000000000004aa8       0x68 build/py/binary.o
 .debug_ranges  0x0000000000004b10      0x170 build/py/builtinimport.o
 .debug_ranges  0x0000000000004c80       0x70 build/py/builtinevex.o
 .debug_ranges  0x0000000000004cf0      0x1a0 build/py/modbuiltins.o
 .debug_ranges  0x0000000000004e90       0x20 build/py/modmicropython.o
 .debug_ranges  0x0000000000004eb0      0x448 build/py/vm.o
 .debug_ranges  0x00000000000052f8      0x2e8 build/py/bc.o
 .debug_ranges  0x00000000000055e0      0x180 build/py/repl.o
 .debug_ranges  0x0000000000005760       0x20 build/py/smallint.o
 .debug_ranges  0x0000000000005780       0x50 build/py/frozenmod.o
 .debug_ranges  0x00000000000057d0       0x60 build/main.o
 .debug_ranges  0x0000000000005830       0x18 build/uart_core.o
 .debug_ranges  0x0000000000005848      0x310 build/STdriver.o
 .debug_ranges  0x0000000000005b58       0x40 build/shared/libc/printf.o
 .debug_ranges  0x0000000000005b98       0x58 build/shared/readline/readline.o
 .debug_ranges  0x0000000000005bf0      0x210 build/shared/runtime/pyexec.o
 .debug_ranges  0x0000000000005e00       0x18 build/shared/runtime/stdout_helpers.o
 .debug_ranges  0x0000000000005e18      0x160 build/shared/libc/string0.o

.debug_frame    0x0000000000000000     0x5918
 .debug_frame   0x0000000000000000       0x30 build/py/nlr.o
 .debug_frame   0x0000000000000030       0x38 build/py/nlrthumb.o
 .debug_frame   0x0000000000000068       0x80 build/py/malloc.o
 .debug_frame   0x00000000000000e8      0x1d4 build/py/gc.o
 .debug_frame   0x00000000000002bc      0x148 build/py/qstr.o
 .debug_frame   0x0000000000000404      0x278 build/py/vstr.o
 .debug_frame   0x000000000000067c      0x120 build/py/mpprint.o
 .debug_frame   0x000000000000079c       0xd0 build/py/unicode.o
 .debug_frame   0x000000000000086c       0x5c build/py/reader.o
 .debug_frame   0x00000000000008c8       0xe0 build/py/lexer.o
 .debug_frame   0x00000000000009a8      0x180 build/py/parse.o
 .debug_frame   0x0000000000000b28       0xb4 build/py/scope.o
 .debug_frame   0x0000000000000bdc      0xbd0 build/py/compile.o
 .debug_frame   0x00000000000017ac       0xb0 build/py/emitcommon.o
 .debug_frame   0x000000000000185c      0x618 build/py/emitbc.o
 .debug_frame   0x0000000000001e74       0x28 build/py/parsenumbase.o
 .debug_frame   0x0000000000001e9c       0x68 build/py/parsenum.o
 .debug_frame   0x0000000000001f04       0x7c build/py/emitglue.o
 .debug_frame   0x0000000000001f80      0x564 build/py/runtime.o
 .debug_frame   0x00000000000024e4       0x38 build/py/scheduler.o
 .debug_frame   0x000000000000251c       0x90 build/py/argcheck.o
 .debug_frame   0x00000000000025ac       0xc0 build/py/map.o
 .debug_frame   0x000000000000266c      0x294 build/py/obj.o
 .debug_frame   0x0000000000002900       0x5c build/py/objbool.o
 .debug_frame   0x000000000000295c       0x74 build/py/objboundmeth.o
 .debug_frame   0x00000000000029d0       0x28 build/py/objcell.o
 .debug_frame   0x00000000000029f8       0x60 build/py/objclosure.o
 .debug_frame   0x0000000000002a58      0x31c build/py/objdict.o
 .debug_frame   0x0000000000002d74      0x270 build/py/objexcept.o
 .debug_frame   0x0000000000002fe4      0x13c build/py/objfun.o
 .debug_frame   0x0000000000003120       0xf0 build/py/objgenerator.o
 .debug_frame   0x0000000000003210       0x44 build/py/objgetitemiter.o
 .debug_frame   0x0000000000003254      0x1e4 build/py/objint.o
 .debug_frame   0x0000000000003438      0x2d0 build/py/objlist.o
 .debug_frame   0x0000000000003708       0x5c build/py/objmap.o
 .debug_frame   0x0000000000003764       0x98 build/py/objmodule.o
 .debug_frame   0x00000000000037fc       0x2c build/py/objobject.o
 .debug_frame   0x0000000000003828       0x20 build/py/objpolyiter.o
 .debug_frame   0x0000000000003848       0x20 build/py/objnone.o
 .debug_frame   0x0000000000003868       0xac build/py/objrange.o
 .debug_frame   0x0000000000003914       0x20 build/py/objsingleton.o
 .debug_frame   0x0000000000003934      0x6a0 build/py/objstr.o
 .debug_frame   0x0000000000003fd4      0x130 build/py/objtuple.o
 .debug_frame   0x0000000000004104      0x3c4 build/py/objtype.o
 .debug_frame   0x00000000000044c8       0x54 build/py/objzip.o
 .debug_frame   0x000000000000451c       0xa0 build/py/opmethods.o
 .debug_frame   0x00000000000045bc       0xdc build/py/sequence.o
 .debug_frame   0x0000000000004698      0x224 build/py/stream.o
 .debug_frame   0x00000000000048bc      0x100 build/py/binary.o
 .debug_frame   0x00000000000049bc       0xec build/py/builtinimport.o
 .debug_frame   0x0000000000004aa8       0x54 build/py/builtinevex.o
 .debug_frame   0x0000000000004afc      0x2e4 build/py/modbuiltins.o
 .debug_frame   0x0000000000004de0       0x58 build/py/modmicropython.o
 .debug_frame   0x0000000000004e38       0x40 build/py/vm.o
 .debug_frame   0x0000000000004e78       0xa0 build/py/bc.o
 .debug_frame   0x0000000000004f18       0x94 build/py/repl.o
 .debug_frame   0x0000000000004fac       0x40 build/py/smallint.o
 .debug_frame   0x0000000000004fec       0x34 build/py/frozenmod.o
 .debug_frame   0x0000000000005020      0x100 build/main.o
 .debug_frame   0x0000000000005120       0x30 build/uart_core.o
 .debug_frame   0x0000000000005150      0x2f8 build/STdriver.o
 .debug_frame   0x0000000000005448       0xe8 build/shared/libc/printf.o
 .debug_frame   0x0000000000005530       0xc4 build/shared/readline/readline.o
 .debug_frame   0x00000000000055f4      0x124 build/shared/runtime/pyexec.o
 .debug_frame   0x0000000000005718       0x54 build/shared/runtime/stdout_helpers.o
 .debug_frame   0x000000000000576c      0x1ac build/shared/libc/string0.o

Cross Reference Table

Symbol                                            File
Default_Handler                                   build/main.o
FLASHSetLatency                                   build/STdriver.o
FnCapital                                         build/STdriver.o
FnClockConfigInit                                 build/STdriver.o
                                                  build/main.o
FnGPIOInit                                        build/STdriver.o
                                                  build/main.o
FnSerialInit                                      build/STdriver.o
                                                  build/main.o
GPIOInit                                          build/STdriver.o
GPIOPinAFConfig                                   build/STdriver.o
GPIOResetBits                                     build/STdriver.o
GPIOSetBits                                       build/STdriver.o
NVICInit                                          build/STdriver.o
RCCAHB1PeriphClockCmd                             build/STdriver.o
RCCAPB1PeriphClockCmd                             build/STdriver.o
RCCDeInit                                         build/STdriver.o
RCCGetClocksFreq                                  build/STdriver.o
RCCGetFlagStatus                                  build/STdriver.o
RCCGetSYSCLKSource                                build/STdriver.o
RCCHCLKConfig                                     build/STdriver.o
RCCHSEConfig                                      build/STdriver.o
RCCHSICmd                                         build/STdriver.o
RCCPCLK1Config                                    build/STdriver.o
RCCPCLK2Config                                    build/STdriver.o
RCCPLLCmd                                         build/STdriver.o
RCCPLLConfig                                      build/STdriver.o
RCCSYSCLKConfig                                   build/STdriver.o
Reset_Handler                                     build/main.o
STBlink                                           build/STdriver.o
                                                  build/main.o
STReceive                                         build/STdriver.o
                                                  build/uart_core.o
STprint                                           build/STdriver.o
                                                  build/uart_core.o
USART2_IRQHandler                                 build/STdriver.o
USARTClearFlag                                    build/STdriver.o
USARTCmd                                          build/STdriver.o
USARTGetFlagStatus                                build/STdriver.o
USARTITConfig                                     build/STdriver.o
USARTInit                                         build/STdriver.o
USARTReceiveData                                  build/STdriver.o
USARTSendData                                     build/STdriver.o
__fatal_error                                     build/main.o
__io_putchar                                      build/STdriver.o
__memcpy_chk                                      build/shared/libc/string0.o
_ctype_                                           build/STdriver.o
_ebss                                             build/main.o
_edata                                            build/main.o
_estack                                           build/main.o
_sbss                                             build/main.o
_sdata                                            build/main.o
_sidata                                           build/main.o
_start                                            build/main.o
do_str                                            build/main.o
emit_bc_free                                      build/py/emitbc.o
                                                  build/py/compile.o
emit_bc_new                                       build/py/emitbc.o
                                                  build/py/compile.o
emit_bc_set_max_num_labels                        build/py/emitbc.o
                                                  build/py/compile.o
find_subbytes                                     build/py/objstr.o
gc_alloc                                          build/py/gc.o
                                                  build/py/malloc.o
gc_collect                                        build/main.o
                                                  build/py/gc.o
gc_collect_end                                    build/py/gc.o
                                                  build/main.o
gc_collect_root                                   build/py/gc.o
                                                  build/main.o
gc_collect_start                                  build/py/gc.o
                                                  build/main.o
gc_dump_alloc_table                               build/py/gc.o
gc_dump_info                                      build/py/gc.o
gc_free                                           build/py/gc.o
                                                  build/py/malloc.o
gc_info                                           build/py/gc.o
gc_init                                           build/py/gc.o
                                                  build/main.o
gc_is_locked                                      build/py/gc.o
                                                  build/py/runtime.o
gc_lock                                           build/py/gc.o
                                                  build/py/modmicropython.o
gc_nbytes                                         build/py/gc.o
                                                  build/py/qstr.o
gc_realloc                                        build/py/gc.o
                                                  build/py/malloc.o
gc_sweep_all                                      build/py/gc.o
gc_unlock                                         build/py/gc.o
                                                  build/py/modmicropython.o
isr_vector                                        build/main.o
m_free                                            build/py/malloc.o
                                                  build/py/objtype.o
                                                  build/py/objtuple.o
                                                  build/py/objmap.o
                                                  build/py/objint.o
                                                  build/py/objfun.o
                                                  build/py/objclosure.o
                                                  build/py/objboundmeth.o
                                                  build/py/map.o
                                                  build/py/runtime.o
                                                  build/py/emitbc.o
                                                  build/py/scope.o
                                                  build/py/parse.o
                                                  build/py/lexer.o
                                                  build/py/reader.o
                                                  build/py/mpprint.o
                                                  build/py/vstr.o
m_malloc                                          build/py/malloc.o
                                                  build/shared/runtime/pyexec.o
                                                  build/py/objtype.o
                                                  build/py/objtuple.o
                                                  build/py/objstr.o
                                                  build/py/objmodule.o
                                                  build/py/objmap.o
                                                  build/py/objlist.o
                                                  build/py/objint.o
                                                  build/py/objdict.o
                                                  build/py/objclosure.o
                                                  build/py/obj.o
                                                  build/py/runtime.o
                                                  build/py/emitbc.o
                                                  build/py/compile.o
                                                  build/py/scope.o
                                                  build/py/parse.o
                                                  build/py/lexer.o
                                                  build/py/reader.o
                                                  build/py/vstr.o
m_malloc0                                         build/py/malloc.o
                                                  build/py/objtype.o
                                                  build/py/map.o
                                                  build/py/emitglue.o
                                                  build/py/emitbc.o
                                                  build/py/compile.o
                                                  build/py/scope.o
m_malloc_fail                                     build/py/runtime.o
                                                  build/py/qstr.o
                                                  build/py/malloc.o
m_malloc_maybe                                    build/py/malloc.o
                                                  build/shared/readline/readline.o
                                                  build/py/objfun.o
                                                  build/py/objexcept.o
                                                  build/py/objboundmeth.o
                                                  build/py/qstr.o
m_realloc                                         build/py/malloc.o
                                                  build/py/objtuple.o
                                                  build/py/objstr.o
                                                  build/py/objlist.o
                                                  build/py/runtime.o
                                                  build/py/scope.o
                                                  build/py/parse.o
                                                  build/py/lexer.o
                                                  build/py/vstr.o
m_realloc_maybe                                   build/py/malloc.o
                                                  build/py/objexcept.o
                                                  build/py/parse.o
                                                  build/py/qstr.o
main                                              build/main.o
memchr                                            build/shared/libc/string0.o
memcmp                                            build/shared/libc/string0.o
                                                  build/py/frozenmod.o
                                                  build/py/repl.o
                                                  build/py/sequence.o
                                                  build/py/objstr.o
                                                  build/py/qstr.o
memcpy                                            build/shared/libc/string0.o
                                                  build/shared/readline/readline.o
                                                  build/shared/libc/printf.o
                                                  build/main.o
                                                  build/py/builtinimport.o
                                                  build/py/binary.o
                                                  build/py/sequence.o
                                                  build/py/objtype.o
                                                  build/py/objtuple.o
                                                  build/py/objstr.o
                                                  build/py/objlist.o
                                                  build/py/objfun.o
                                                  build/py/objexcept.o
                                                  build/py/objdict.o
                                                  build/py/objclosure.o
                                                  build/py/objboundmeth.o
                                                  build/py/runtime.o
                                                  build/py/compile.o
                                                  build/py/qstr.o
                                                  build/py/gc.o
memmove                                           build/shared/libc/string0.o
                                                  build/shared/readline/readline.o
                                                  build/py/objstr.o
                                                  build/py/objlist.o
                                                  build/py/vstr.o
memset                                            build/shared/libc/string0.o
                                                  build/shared/readline/readline.o
                                                  build/STdriver.o
                                                  build/main.o
                                                  build/py/bc.o
                                                  build/py/binary.o
                                                  build/py/objtype.o
                                                  build/py/objstr.o
                                                  build/py/objlist.o
                                                  build/py/objint.o
                                                  build/py/compile.o
                                                  build/py/gc.o
mp_arg_check_num_sig                              build/py/argcheck.o
                                                  build/py/objzip.o
                                                  build/py/objtype.o
                                                  build/py/objtuple.o
                                                  build/py/objstr.o
                                                  build/py/objrange.o
                                                  build/py/objobject.o
                                                  build/py/objmap.o
                                                  build/py/objlist.o
                                                  build/py/objint.o
                                                  build/py/objfun.o
                                                  build/py/objexcept.o
                                                  build/py/objdict.o
                                                  build/py/objbool.o
mp_arg_error_terse_mismatch                       build/py/argcheck.o
                                                  build/py/bc.o
mp_arg_parse_all                                  build/py/argcheck.o
                                                  build/py/modbuiltins.o
                                                  build/py/objlist.o
mp_arg_parse_all_kw_array                         build/py/argcheck.o
mp_binary_get_int                                 build/py/binary.o
mp_binary_get_size                                build/py/binary.o
mp_binary_get_val                                 build/py/binary.o
mp_binary_get_val_array                           build/py/binary.o
mp_binary_op                                      build/py/runtime.o
                                                  build/py/vm.o
                                                  build/py/modbuiltins.o
                                                  build/py/sequence.o
                                                  build/py/objtype.o
                                                  build/py/objlist.o
                                                  build/py/objint.o
                                                  build/py/objbool.o
mp_binary_op_method_name                          build/py/objtype.o
mp_binary_set_int                                 build/py/binary.o
                                                  build/py/objint.o
mp_binary_set_val                                 build/py/binary.o
mp_binary_set_val_array                           build/py/binary.o
mp_binary_set_val_array_from_int                  build/py/binary.o
mp_builtin___build_class___obj                    build/py/modbuiltins.o
                                                  build/py/runtime.o
mp_builtin___import___default                     build/py/builtinimport.o
                                                  build/py/runtime.o
mp_builtin___import___obj                         build/py/builtinimport.o
                                                  build/py/modbuiltins.o
mp_builtin___repl_print___obj                     build/py/modbuiltins.o
mp_builtin_abs_obj                                build/py/modbuiltins.o
mp_builtin_all_obj                                build/py/modbuiltins.o
mp_builtin_any_obj                                build/py/modbuiltins.o
mp_builtin_bin_obj                                build/py/modbuiltins.o
mp_builtin_callable_obj                           build/py/modbuiltins.o
mp_builtin_chr_obj                                build/py/modbuiltins.o
mp_builtin_dir_obj                                build/py/modbuiltins.o
mp_builtin_divmod_obj                             build/py/modbuiltins.o
mp_builtin_eval_obj                               build/py/builtinevex.o
                                                  build/py/modbuiltins.o
mp_builtin_exec_obj                               build/py/builtinevex.o
                                                  build/py/modbuiltins.o
mp_builtin_getattr_obj                            build/py/modbuiltins.o
mp_builtin_globals_obj                            build/py/modbuiltins.o
mp_builtin_hasattr_obj                            build/py/modbuiltins.o
mp_builtin_hash_obj                               build/py/modbuiltins.o
mp_builtin_hex_obj                                build/py/modbuiltins.o
mp_builtin_id_obj                                 build/py/modbuiltins.o
mp_builtin_isinstance_obj                         build/py/objtype.o
                                                  build/py/modbuiltins.o
mp_builtin_issubclass_obj                         build/py/objtype.o
                                                  build/py/modbuiltins.o
mp_builtin_iter_obj                               build/py/modbuiltins.o
mp_builtin_len_obj                                build/py/modbuiltins.o
mp_builtin_locals_obj                             build/py/modbuiltins.o
mp_builtin_module_map                             build/py/objmodule.o
                                                  build/py/repl.o
mp_builtin_next_obj                               build/py/modbuiltins.o
                                                  build/py/runtime.o
mp_builtin_oct_obj                                build/py/modbuiltins.o
mp_builtin_ord_obj                                build/py/modbuiltins.o
mp_builtin_pow_obj                                build/py/modbuiltins.o
mp_builtin_print_obj                              build/py/modbuiltins.o
mp_builtin_repr_obj                               build/py/modbuiltins.o
mp_builtin_round_obj                              build/py/modbuiltins.o
mp_builtin_setattr_obj                            build/py/modbuiltins.o
mp_builtin_sorted_obj                             build/py/modbuiltins.o
mp_builtin_sum_obj                                build/py/modbuiltins.o
mp_call_function_0                                build/py/runtime.o
                                                  build/shared/runtime/pyexec.o
                                                  build/main.o
                                                  build/py/modbuiltins.o
                                                  build/py/builtinimport.o
mp_call_function_1                                build/py/runtime.o
                                                  build/py/objtype.o
                                                  build/py/objlist.o
                                                  build/py/runtime_utils.o
mp_call_function_1_protected                      build/py/runtime_utils.o
mp_call_function_2                                build/py/runtime.o
                                                  build/py/runtime_utils.o
mp_call_function_2_protected                      build/py/runtime_utils.o
mp_call_function_n_kw                             build/py/runtime.o
                                                  build/py/vm.o
                                                  build/py/modbuiltins.o
                                                  build/py/objtype.o
                                                  build/py/objmap.o
                                                  build/py/objclosure.o
                                                  build/py/objboundmeth.o
mp_call_method_n_kw                               build/py/runtime.o
                                                  build/py/vm.o
                                                  build/py/objtype.o
                                                  build/py/objgetitemiter.o
mp_call_method_n_kw_var                           build/py/runtime.o
                                                  build/py/vm.o
mp_call_method_self_n_kw                          build/py/objboundmeth.o
                                                  build/py/objtype.o
mp_compile                                        build/py/compile.o
                                                  build/shared/runtime/pyexec.o
                                                  build/main.o
                                                  build/py/runtime.o
mp_const_GeneratorExit_obj                        build/py/objgenerator.o
                                                  build/py/vm.o
mp_const_ellipsis_obj                             build/py/objsingleton.o
                                                  build/py/modbuiltins.o
                                                  build/py/emitbc.o
mp_const_empty_bytes_obj                          build/py/objstr.o
mp_const_empty_dict_obj                           build/py/objdict.o
mp_const_empty_tuple_obj                          build/py/objtuple.o
                                                  build/py/bc.o
                                                  build/py/objgenerator.o
                                                  build/py/objexcept.o
mp_convert_member_lookup                          build/py/runtime.o
                                                  build/py/objtype.o
mp_decode_uint                                    build/py/bc.o
mp_decode_uint_skip                               build/py/bc.o
                                                  build/py/vm.o
mp_decode_uint_value                              build/py/bc.o
                                                  build/py/vm.o
                                                  build/py/objfun.o
mp_decompress_rom_string                          build/py/qstr.o
                                                  build/py/objexcept.o
mp_deinit                                         build/py/runtime.o
                                                  build/main.o
mp_delete_global                                  build/py/runtime.o
                                                  build/py/vm.o
mp_delete_name                                    build/py/runtime.o
                                                  build/py/vm.o
mp_emit_bc_adjust_stack_size                      build/py/emitbc.o
                                                  build/py/compile.o
mp_emit_bc_attr                                   build/py/emitbc.o
                                                  build/py/compile.o
mp_emit_bc_binary_op                              build/py/emitbc.o
                                                  build/py/compile.o
mp_emit_bc_build                                  build/py/emitbc.o
                                                  build/py/compile.o
mp_emit_bc_call_function                          build/py/emitbc.o
                                                  build/py/compile.o
mp_emit_bc_call_method                            build/py/emitbc.o
                                                  build/py/compile.o
mp_emit_bc_delete_global                          build/py/emitbc.o
mp_emit_bc_delete_local                           build/py/emitbc.o
mp_emit_bc_dup_top                                build/py/emitbc.o
                                                  build/py/compile.o
mp_emit_bc_dup_top_two                            build/py/emitbc.o
                                                  build/py/compile.o
mp_emit_bc_end_except_handler                     build/py/emitbc.o
                                                  build/py/compile.o
mp_emit_bc_end_finally                            build/py/emitbc.o
                                                  build/py/compile.o
mp_emit_bc_end_pass                               build/py/emitbc.o
                                                  build/py/compile.o
mp_emit_bc_for_iter                               build/py/emitbc.o
                                                  build/py/compile.o
mp_emit_bc_for_iter_end                           build/py/emitbc.o
                                                  build/py/compile.o
mp_emit_bc_get_iter                               build/py/emitbc.o
                                                  build/py/compile.o
mp_emit_bc_import                                 build/py/emitbc.o
                                                  build/py/compile.o
mp_emit_bc_jump                                   build/py/emitbc.o
                                                  build/py/compile.o
mp_emit_bc_jump_if_or_pop                         build/py/emitbc.o
                                                  build/py/compile.o
mp_emit_bc_label_assign                           build/py/emitbc.o
                                                  build/py/compile.o
mp_emit_bc_load_build_class                       build/py/emitbc.o
                                                  build/py/compile.o
mp_emit_bc_load_const_obj                         build/py/emitbc.o
                                                  build/py/compile.o
mp_emit_bc_load_const_small_int                   build/py/emitbc.o
                                                  build/py/compile.o
mp_emit_bc_load_const_str                         build/py/emitbc.o
                                                  build/py/compile.o
mp_emit_bc_load_const_tok                         build/py/emitbc.o
                                                  build/py/compile.o
mp_emit_bc_load_global                            build/py/emitbc.o
                                                  build/py/compile.o
mp_emit_bc_load_local                             build/py/emitbc.o
                                                  build/py/compile.o
mp_emit_bc_load_method                            build/py/emitbc.o
                                                  build/py/compile.o
mp_emit_bc_load_null                              build/py/emitbc.o
                                                  build/py/compile.o
mp_emit_bc_make_closure                           build/py/emitbc.o
                                                  build/py/compile.o
mp_emit_bc_make_function                          build/py/emitbc.o
                                                  build/py/compile.o
mp_emit_bc_method_table_delete_id_ops             build/py/emitbc.o
                                                  build/py/compile.o
mp_emit_bc_method_table_load_id_ops               build/py/emitbc.o
                                                  build/py/compile.o
mp_emit_bc_method_table_store_id_ops              build/py/emitbc.o
                                                  build/py/compile.o
mp_emit_bc_pop_except_jump                        build/py/emitbc.o
                                                  build/py/compile.o
mp_emit_bc_pop_jump_if                            build/py/emitbc.o
                                                  build/py/compile.o
mp_emit_bc_pop_top                                build/py/emitbc.o
                                                  build/py/compile.o
mp_emit_bc_raise_varargs                          build/py/emitbc.o
                                                  build/py/compile.o
mp_emit_bc_return_value                           build/py/emitbc.o
                                                  build/py/compile.o
mp_emit_bc_rot_three                              build/py/emitbc.o
                                                  build/py/compile.o
mp_emit_bc_rot_two                                build/py/emitbc.o
                                                  build/py/compile.o
mp_emit_bc_set_source_line                        build/py/emitbc.o
                                                  build/py/compile.o
mp_emit_bc_setup_block                            build/py/emitbc.o
                                                  build/py/compile.o
mp_emit_bc_start_except_handler                   build/py/emitbc.o
                                                  build/py/compile.o
mp_emit_bc_start_pass                             build/py/emitbc.o
                                                  build/py/compile.o
mp_emit_bc_store_comp                             build/py/emitbc.o
                                                  build/py/compile.o
mp_emit_bc_store_global                           build/py/emitbc.o
mp_emit_bc_store_local                            build/py/emitbc.o
mp_emit_bc_store_map                              build/py/emitbc.o
                                                  build/py/compile.o
mp_emit_bc_subscr                                 build/py/emitbc.o
                                                  build/py/compile.o
mp_emit_bc_unary_op                               build/py/emitbc.o
                                                  build/py/compile.o
mp_emit_bc_unpack_ex                              build/py/emitbc.o
                                                  build/py/compile.o
mp_emit_bc_unpack_sequence                        build/py/emitbc.o
                                                  build/py/compile.o
mp_emit_bc_unwind_jump                            build/py/emitbc.o
                                                  build/py/compile.o
mp_emit_bc_with_cleanup                           build/py/emitbc.o
                                                  build/py/compile.o
mp_emit_bc_yield                                  build/py/emitbc.o
                                                  build/py/compile.o
mp_emit_common_get_id_for_modification            build/py/emitcommon.o
                                                  build/py/compile.o
mp_emit_common_id_op                              build/py/emitcommon.o
                                                  build/py/compile.o
mp_emit_common_use_const_obj                      build/py/emitcommon.o
                                                  build/py/emitbc.o
mp_emit_common_use_qstr                           build/py/emitcommon.o
                                                  build/py/emitbc.o
mp_emit_glue_assign_bytecode                      build/py/emitglue.o
                                                  build/py/emitbc.o
mp_emit_glue_new_raw_code                         build/py/emitglue.o
                                                  build/py/scope.o
mp_encode_uint                                    build/py/bc.o
                                                  build/py/emitbc.o
mp_execute_bytecode                               build/py/vm.o
                                                  build/py/objgenerator.o
                                                  build/py/objfun.o
mp_find_frozen_module                             build/py/frozenmod.o
                                                  build/shared/runtime/pyexec.o
                                                  build/py/builtinimport.o
mp_frozen_mpy_content                             build/build/_frozen_mpy.o
                                                  build/py/frozenmod.o
mp_frozen_names                                   build/build/_frozen_mpy.o
                                                  build/py/frozenmod.o
mp_generic_unary_op                               build/py/obj.o
                                                  build/py/objtype.o
                                                  build/py/objsingleton.o
                                                  build/py/objnone.o
                                                  build/py/objgenerator.o
                                                  build/py/objfun.o
mp_get_buffer                                     build/py/obj.o
                                                  build/py/stream.o
                                                  build/py/objstr.o
mp_get_buffer_raise                               build/py/obj.o
                                                  build/py/builtinevex.o
                                                  build/py/stream.o
                                                  build/py/objstr.o
                                                  build/py/objint.o
mp_get_index                                      build/py/obj.o
                                                  build/py/sequence.o
                                                  build/py/objtuple.o
                                                  build/py/objstr.o
                                                  build/py/objrange.o
                                                  build/py/objlist.o
mp_get_stream_raise                               build/py/stream.o
mp_getiter                                        build/py/runtime.o
                                                  build/py/vm.o
                                                  build/py/modbuiltins.o
                                                  build/py/objzip.o
                                                  build/py/objtuple.o
                                                  build/py/objstr.o
                                                  build/py/objmap.o
                                                  build/py/objlist.o
                                                  build/py/objdict.o
mp_hal_stdin_rx_chr                               build/uart_core.o
                                                  build/shared/runtime/pyexec.o
                                                  build/shared/readline/readline.o
mp_hal_stdout_tx_str                              build/shared/runtime/stdout_helpers.o
                                                  build/shared/runtime/pyexec.o
                                                  build/shared/readline/readline.o
mp_hal_stdout_tx_strn                             build/uart_core.o
                                                  build/shared/runtime/stdout_helpers.o
                                                  build/shared/runtime/pyexec.o
                                                  build/shared/readline/readline.o
mp_hal_stdout_tx_strn_cooked                      build/shared/runtime/stdout_helpers.o
                                                  build/shared/libc/printf.o
                                                  build/py/mpprint.o
mp_handle_pending                                 build/py/scheduler.o
                                                  build/shared/runtime/pyexec.o
                                                  build/py/vm.o
mp_identity                                       build/py/obj.o
mp_identity_obj                                   build/py/obj.o
                                                  build/py/modmicropython.o
mp_import_all                                     build/py/runtime.o
                                                  build/py/vm.o
mp_import_from                                    build/py/runtime.o
                                                  build/py/vm.o
mp_import_name                                    build/py/runtime.o
                                                  build/py/vm.o
mp_import_stat                                    build/main.o
                                                  build/shared/runtime/pyexec.o
                                                  build/py/builtinimport.o
mp_init                                           build/py/runtime.o
                                                  build/main.o
mp_int_format_size                                build/py/objint.o
mp_iternext                                       build/py/runtime.o
                                                  build/py/modbuiltins.o
                                                  build/py/objzip.o
                                                  build/py/objtuple.o
                                                  build/py/objstr.o
                                                  build/py/objmap.o
                                                  build/py/objlist.o
                                                  build/py/objdict.o
mp_iternext_allow_raise                           build/py/runtime.o
                                                  build/py/vm.o
                                                  build/py/modbuiltins.o
mp_lexer_free                                     build/py/lexer.o
                                                  build/py/parse.o
mp_lexer_new                                      build/py/lexer.o
                                                  build/shared/runtime/pyexec.o
mp_lexer_new_from_file                            build/main.o
                                                  build/shared/runtime/pyexec.o
                                                  build/py/builtinimport.o
mp_lexer_new_from_str_len                         build/py/lexer.o
                                                  build/shared/runtime/pyexec.o
                                                  build/main.o
                                                  build/py/builtinevex.o
mp_lexer_to_next                                  build/py/lexer.o
                                                  build/py/parse.o
mp_load_attr                                      build/py/runtime.o
                                                  build/py/vm.o
mp_load_build_class                               build/py/runtime.o
                                                  build/py/vm.o
mp_load_global                                    build/py/runtime.o
                                                  build/py/vm.o
mp_load_method                                    build/py/runtime.o
                                                  build/py/vm.o
                                                  build/py/modbuiltins.o
                                                  build/py/objtype.o
mp_load_method_maybe                              build/py/runtime.o
                                                  build/py/builtinimport.o
                                                  build/py/objtype.o
mp_load_method_protected                          build/py/runtime.o
                                                  build/py/repl.o
                                                  build/py/modbuiltins.o
mp_load_name                                      build/py/runtime.o
                                                  build/py/vm.o
mp_load_super_method                              build/py/objtype.o
                                                  build/py/vm.o
mp_make_closure_from_raw_code                     build/py/emitglue.o
                                                  build/py/vm.o
mp_make_function_from_raw_code                    build/py/emitglue.o
                                                  build/shared/runtime/pyexec.o
                                                  build/py/vm.o
                                                  build/py/builtinimport.o
                                                  build/py/compile.o
mp_make_raise_obj                                 build/py/runtime.o
                                                  build/py/vm.o
mp_map_clear                                      build/py/map.o
                                                  build/py/objdict.o
mp_map_deinit                                     build/py/map.o
mp_map_init                                       build/py/map.o
                                                  build/py/objtype.o
                                                  build/py/objdict.o
                                                  build/py/compile.o
mp_map_init_fixed_table                           build/py/map.o
                                                  build/py/objfun.o
                                                  build/py/objdict.o
                                                  build/py/argcheck.o
mp_map_lookup                                     build/py/map.o
                                                  build/py/repl.o
                                                  build/py/bc.o
                                                  build/py/builtinimport.o
                                                  build/py/objtype.o
                                                  build/py/objstr.o
                                                  build/py/objmodule.o
                                                  build/py/objdict.o
                                                  build/py/argcheck.o
                                                  build/py/runtime.o
                                                  build/py/emitcommon.o
                                                  build/py/compile.o
mp_module___main__                                build/py/runtime.o
                                                  build/py/repl.o
                                                  build/py/objmodule.o
mp_module_builtins                                build/py/modbuiltins.o
                                                  build/py/objmodule.o
mp_module_builtins_globals                        build/py/modbuiltins.o
                                                  build/py/runtime.o
mp_module_generic_attr                            build/py/objmodule.o
mp_module_get_loaded_or_builtin                   build/py/objmodule.o
                                                  build/py/builtinimport.o
mp_module_micropython                             build/py/modmicropython.o
                                                  build/py/objmodule.o
mp_obj_cast_to_native_base                        build/py/objtype.o
                                                  build/py/objtuple.o
mp_obj_dict_copy                                  build/py/objdict.o
mp_obj_dict_delete                                build/py/objdict.o
                                                  build/py/objmodule.o
                                                  build/py/runtime.o
mp_obj_dict_get                                   build/py/objdict.o
                                                  build/py/builtinimport.o
mp_obj_dict_init                                  build/py/objdict.o
                                                  build/py/runtime.o
mp_obj_dict_len                                   build/py/objdict.o
                                                  build/py/runtime.o
mp_obj_dict_make_new                              build/py/objdict.o
mp_obj_dict_store                                 build/py/objdict.o
                                                  build/py/bc.o
                                                  build/py/vm.o
                                                  build/py/objmodule.o
                                                  build/py/runtime.o
mp_obj_equal                                      build/py/obj.o
                                                  build/py/sequence.o
                                                  build/py/objdict.o
                                                  build/py/map.o
                                                  build/py/runtime.o
                                                  build/py/emitcommon.o
mp_obj_equal_not_equal                            build/py/obj.o
                                                  build/py/runtime.o
mp_obj_exception_add_traceback                    build/py/objexcept.o
                                                  build/py/vm.o
                                                  build/py/parsenum.o
                                                  build/py/compile.o
                                                  build/py/parse.o
mp_obj_exception_attr                             build/py/objexcept.o
mp_obj_exception_clear_traceback                  build/py/objexcept.o
mp_obj_exception_get_traceback                    build/py/objexcept.o
                                                  build/py/obj.o
mp_obj_exception_get_value                        build/py/objexcept.o
                                                  build/py/vm.o
                                                  build/py/runtime.o
mp_obj_exception_make_new                         build/py/objexcept.o
                                                  build/py/runtime.o
mp_obj_exception_match                            build/py/objexcept.o
                                                  build/py/vm.o
                                                  build/py/runtime.o
mp_obj_exception_print                            build/py/objexcept.o
mp_obj_fun_get_name                               build/py/objfun.o
                                                  build/py/objgenerator.o
mp_obj_gen_resume                                 build/py/objgenerator.o
                                                  build/py/runtime.o
mp_obj_get_array                                  build/py/obj.o
                                                  build/py/objstr.o
                                                  build/py/runtime.o
mp_obj_get_array_fixed_n                          build/py/obj.o
mp_obj_get_int                                    build/py/obj.o
                                                  build/py/modmicropython.o
                                                  build/py/modbuiltins.o
                                                  build/py/binary.o
                                                  build/py/stream.o
                                                  build/py/objstr.o
                                                  build/py/objrange.o
                                                  build/py/objint.o
                                                  build/py/argcheck.o
                                                  build/py/runtime.o
                                                  build/py/mpprint.o
mp_obj_get_int_maybe                              build/py/obj.o
                                                  build/py/objtuple.o
                                                  build/py/objstr.o
                                                  build/py/objlist.o
mp_obj_get_int_truncated                          build/py/obj.o
                                                  build/py/stream.o
                                                  build/py/objtype.o
mp_obj_get_type                                   build/py/obj.o
                                                  build/py/vm.o
                                                  build/py/modbuiltins.o
                                                  build/py/stream.o
                                                  build/py/sequence.o
                                                  build/py/opmethods.o
                                                  build/py/objtype.o
                                                  build/py/objtuple.o
                                                  build/py/objstr.o
                                                  build/py/objgenerator.o
                                                  build/py/objexcept.o
                                                  build/py/runtime.o
                                                  build/py/emitcommon.o
mp_obj_get_type_str                               build/py/obj.o
                                                  build/py/objtype.o
mp_obj_id                                         build/py/obj.o
                                                  build/py/modbuiltins.o
mp_obj_instance_call                              build/py/objtype.o
                                                  build/py/obj.o
mp_obj_instance_getiter                           build/py/objtype.o
                                                  build/py/runtime.o
mp_obj_instance_is_callable                       build/py/objtype.o
                                                  build/py/obj.o
mp_obj_int_binary_op                              build/py/objint.o
mp_obj_int_binary_op_extra_cases                  build/py/objint.o
mp_obj_int_formatted                              build/py/objint.o
                                                  build/py/mpprint.o
mp_obj_int_get_checked                            build/py/objint.o
                                                  build/py/obj.o
mp_obj_int_get_truncated                          build/py/objint.o
                                                  build/py/obj.o
mp_obj_int_print                                  build/py/objint.o
mp_obj_int_sign                                   build/py/objint.o
                                                  build/py/mpprint.o
mp_obj_int_unary_op                               build/py/objint.o
mp_obj_is_callable                                build/py/obj.o
                                                  build/py/modbuiltins.o
mp_obj_is_dict_or_ordereddict                     build/py/objdict.o
                                                  build/py/objtype.o
mp_obj_is_exception_instance                      build/py/objexcept.o
                                                  build/py/obj.o
                                                  build/py/runtime.o
mp_obj_is_exception_type                          build/py/objexcept.o
                                                  build/py/runtime.o
mp_obj_is_native_exception_instance               build/py/objexcept.o
                                                  build/py/objtype.o
mp_obj_is_package                                 build/py/builtinimport.o
                                                  build/py/runtime.o
mp_obj_is_subclass_fast                           build/py/objtype.o
                                                  build/shared/runtime/pyexec.o
                                                  build/py/vm.o
                                                  build/py/objtuple.o
                                                  build/py/objgenerator.o
                                                  build/py/objexcept.o
                                                  build/py/runtime.o
mp_obj_is_true                                    build/py/obj.o
                                                  build/py/vm.o
                                                  build/py/modbuiltins.o
                                                  build/py/stream.o
                                                  build/py/objtype.o
                                                  build/py/objbool.o
                                                  build/py/argcheck.o
                                                  build/py/runtime.o
mp_obj_len                                        build/py/obj.o
                                                  build/py/modbuiltins.o
mp_obj_len_maybe                                  build/py/obj.o
                                                  build/py/objstr.o
                                                  build/py/runtime.o
mp_obj_list_append                                build/py/objlist.o
                                                  build/py/vm.o
                                                  build/py/modbuiltins.o
                                                  build/py/stream.o
                                                  build/py/sequence.o
                                                  build/py/objstr.o
                                                  build/py/runtime.o
                                                  build/py/emitcommon.o
mp_obj_list_get                                   build/py/objlist.o
                                                  build/py/obj.o
mp_obj_list_init                                  build/py/objlist.o
                                                  build/py/compile.o
mp_obj_list_make_new                              build/py/objlist.o
                                                  build/py/modbuiltins.o
                                                  build/py/objstr.o
mp_obj_list_remove                                build/py/objlist.o
mp_obj_list_set_len                               build/py/objlist.o
                                                  build/py/runtime.o
mp_obj_list_sort                                  build/py/objlist.o
                                                  build/py/modbuiltins.o
mp_obj_list_store                                 build/py/objlist.o
mp_obj_malloc_helper                              build/py/obj.o
                                                  build/py/objzip.o
                                                  build/py/objtype.o
                                                  build/py/objtuple.o
                                                  build/py/objstr.o
                                                  build/py/objrange.o
                                                  build/py/objobject.o
                                                  build/py/objmap.o
                                                  build/py/objgenerator.o
                                                  build/py/objfun.o
                                                  build/py/objdict.o
                                                  build/py/objclosure.o
                                                  build/py/objcell.o
                                                  build/py/objboundmeth.o
mp_obj_new_bound_meth                             build/py/objboundmeth.o
                                                  build/py/modbuiltins.o
                                                  build/py/runtime.o
mp_obj_new_bytes                                  build/py/objstr.o
                                                  build/py/parse.o
mp_obj_new_bytes_from_vstr                        build/py/objstr.o
                                                  build/py/stream.o
                                                  build/py/objint.o
mp_obj_new_cell                                   build/py/objcell.o
                                                  build/py/bc.o
mp_obj_new_closure                                build/py/objclosure.o
                                                  build/py/emitglue.o
mp_obj_new_dict                                   build/py/objdict.o
                                                  build/py/bc.o
                                                  build/py/vm.o
                                                  build/py/modbuiltins.o
                                                  build/py/objmodule.o
mp_obj_new_exception                              build/py/objexcept.o
                                                  build/py/runtime.o
mp_obj_new_exception_args                         build/py/objexcept.o
mp_obj_new_exception_msg                          build/py/objexcept.o
                                                  build/py/vm.o
                                                  build/py/objgenerator.o
                                                  build/py/runtime.o
                                                  build/py/parsenum.o
                                                  build/py/compile.o
                                                  build/py/parse.o
mp_obj_new_exception_msg_varg                     build/py/objexcept.o
mp_obj_new_exception_msg_vlist                    build/py/objexcept.o
                                                  build/py/runtime.o
mp_obj_new_fun_bc                                 build/py/objfun.o
                                                  build/py/emitglue.o
mp_obj_new_getitem_iter                           build/py/objgetitemiter.o
                                                  build/py/runtime.o
mp_obj_new_int                                    build/py/objint.o
                                                  build/py/modbuiltins.o
                                                  build/py/binary.o
                                                  build/py/stream.o
                                                  build/py/obj.o
                                                  build/py/runtime.o
mp_obj_new_int_from_ll                            build/py/objint.o
                                                  build/py/binary.o
                                                  build/py/runtime.o
mp_obj_new_int_from_str_len                       build/py/objint.o
                                                  build/py/parsenum.o
mp_obj_new_int_from_uint                          build/py/objint.o
                                                  build/py/binary.o
                                                  build/py/stream.o
                                                  build/py/obj.o
mp_obj_new_int_from_ull                           build/py/objint.o
                                                  build/py/binary.o
mp_obj_new_list                                   build/py/objlist.o
                                                  build/py/vm.o
                                                  build/py/modbuiltins.o
                                                  build/py/stream.o
                                                  build/py/sequence.o
                                                  build/py/objstr.o
                                                  build/py/runtime.o
mp_obj_new_module                                 build/py/objmodule.o
                                                  build/py/builtinimport.o
mp_obj_new_str                                    build/py/objstr.o
                                                  build/py/builtinimport.o
                                                  build/py/binary.o
mp_obj_new_str_copy                               build/py/objstr.o
                                                  build/py/parse.o
mp_obj_new_str_from_vstr                          build/py/objstr.o
                                                  build/py/modbuiltins.o
                                                  build/py/stream.o
                                                  build/py/runtime.o
mp_obj_new_str_of_type                            build/py/objstr.o
mp_obj_new_str_via_qstr                           build/py/objstr.o
                                                  build/py/modbuiltins.o
mp_obj_new_tuple                                  build/py/objtuple.o
                                                  build/py/bc.o
                                                  build/py/vm.o
                                                  build/py/modbuiltins.o
                                                  build/py/objzip.o
                                                  build/py/objdict.o
                                                  build/py/runtime.o
mp_obj_new_type                                   build/py/objtype.o
mp_obj_print                                      build/py/obj.o
mp_obj_print_exception                            build/py/obj.o
                                                  build/shared/runtime/pyexec.o
                                                  build/main.o
                                                  build/py/runtime_utils.o
mp_obj_print_helper                               build/py/obj.o
                                                  build/py/modbuiltins.o
                                                  build/py/objtype.o
                                                  build/py/objtuple.o
                                                  build/py/objstr.o
                                                  build/py/objlist.o
                                                  build/py/objexcept.o
                                                  build/py/objdict.o
mp_obj_str_binary_op                              build/py/objstr.o
                                                  build/py/objint.o
                                                  build/py/runtime.o
mp_obj_str_equal                                  build/py/objstr.o
                                                  build/py/obj.o
mp_obj_str_format                                 build/py/objstr.o
                                                  build/py/modbuiltins.o
mp_obj_str_get_buffer                             build/py/objstr.o
mp_obj_str_get_data                               build/py/objstr.o
                                                  build/py/modbuiltins.o
                                                  build/py/builtinimport.o
                                                  build/py/objint.o
                                                  build/py/runtime.o
mp_obj_str_get_qstr                               build/py/objstr.o
                                                  build/py/modbuiltins.o
                                                  build/py/objtype.o
                                                  build/py/runtime.o
mp_obj_str_get_str                                build/py/objstr.o
                                                  build/py/objmodule.o
                                                  build/py/runtime.o
mp_obj_str_intern                                 build/py/objstr.o
mp_obj_str_intern_checked                         build/py/objstr.o
                                                  build/py/runtime.o
mp_obj_str_locals_dict                            build/py/objstr.o
mp_obj_str_make_new                               build/py/objstr.o
mp_obj_str_set_data                               build/py/objstr.o
mp_obj_str_split                                  build/py/objstr.o
mp_obj_subscr                                     build/py/obj.o
                                                  build/py/vm.o
                                                  build/py/objtype.o
mp_obj_tuple_binary_op                            build/py/objtuple.o
mp_obj_tuple_del                                  build/py/objtuple.o
                                                  build/py/objzip.o
mp_obj_tuple_get                                  build/py/objtuple.o
                                                  build/py/objtype.o
                                                  build/py/obj.o
mp_obj_tuple_getiter                              build/py/objtuple.o
mp_obj_tuple_print                                build/py/objtuple.o
                                                  build/py/objexcept.o
mp_obj_tuple_subscr                               build/py/objtuple.o
mp_obj_tuple_unary_op                             build/py/objtuple.o
mp_op_contains_obj                                build/py/opmethods.o
mp_op_delitem_obj                                 build/py/opmethods.o
                                                  build/py/objdict.o
mp_op_getitem_obj                                 build/py/opmethods.o
                                                  build/py/objdict.o
mp_op_setitem_obj                                 build/py/opmethods.o
                                                  build/py/objdict.o
mp_pairheap_delete                                build/py/pairheap.o
mp_pairheap_meld                                  build/py/pairheap.o
mp_pairheap_pairing                               build/py/pairheap.o
mp_parse                                          build/py/parse.o
                                                  build/shared/runtime/pyexec.o
                                                  build/main.o
                                                  build/py/runtime.o
mp_parse_compile_execute                          build/py/runtime.o
                                                  build/py/builtinevex.o
                                                  build/py/builtinimport.o
mp_parse_node_extract_list                        build/py/parse.o
                                                  build/py/compile.o
mp_parse_node_get_int_maybe                       build/py/parse.o
mp_parse_node_is_const_false                      build/py/parse.o
                                                  build/py/compile.o
mp_parse_node_is_const_true                       build/py/parse.o
                                                  build/py/compile.o
mp_parse_num_base                                 build/py/parsenumbase.o
                                                  build/py/parsenum.o
mp_parse_num_float                                build/py/parsenum.o
                                                  build/py/parse.o
mp_parse_num_integer                              build/py/parsenum.o
                                                  build/py/objint.o
                                                  build/py/parse.o
mp_parse_tree_clear                               build/py/parse.o
                                                  build/py/compile.o
mp_plat_print                                     build/py/mpprint.o
                                                  build/shared/runtime/pyexec.o
                                                  build/shared/readline/readline.o
                                                  build/shared/libc/printf.o
                                                  build/main.o
                                                  build/py/modbuiltins.o
                                                  build/py/obj.o
                                                  build/py/runtime_utils.o
                                                  build/py/gc.o
mp_print_mp_int                                   build/py/mpprint.o
                                                  build/py/objstr.o
mp_print_str                                      build/py/mpprint.o
                                                  build/py/repl.o
                                                  build/py/modbuiltins.o
                                                  build/py/objtype.o
                                                  build/py/objtuple.o
                                                  build/py/objstr.o
                                                  build/py/objrange.o
                                                  build/py/objnone.o
                                                  build/py/objlist.o
                                                  build/py/objint.o
                                                  build/py/objexcept.o
                                                  build/py/objdict.o
                                                  build/py/objbool.o
                                                  build/py/obj.o
                                                  build/py/gc.o
mp_print_strn                                     build/py/mpprint.o
                                                  build/py/modbuiltins.o
                                                  build/py/objstr.o
mp_printf                                         build/py/mpprint.o
                                                  build/py/repl.o
                                                  build/py/objtype.o
                                                  build/py/objstr.o
                                                  build/py/objsingleton.o
                                                  build/py/objrange.o
                                                  build/py/objmodule.o
                                                  build/py/objgenerator.o
                                                  build/py/obj.o
                                                  build/py/gc.o
mp_qstr_const_hashes                              build/py/qstr.o
mp_qstr_const_lengths                             build/py/qstr.o
mp_qstr_const_pool                                build/py/qstr.o
                                                  build/build/_frozen_mpy.o
mp_qstr_frozen_const_hashes                       build/build/_frozen_mpy.o
mp_qstr_frozen_const_lengths                      build/build/_frozen_mpy.o
mp_qstr_frozen_const_pool                         build/build/_frozen_mpy.o
                                                  build/py/qstr.o
mp_raise_NotImplementedError                      build/py/runtime.o
                                                  build/py/modbuiltins.o
                                                  build/py/objtype.o
                                                  build/py/objstr.o
                                                  build/py/lexer.o
mp_raise_OSError                                  build/py/runtime.o
                                                  build/main.o
                                                  build/py/stream.o
mp_raise_OSError_with_filename                    build/py/runtime.o
mp_raise_StopIteration                            build/py/runtime.o
                                                  build/py/modbuiltins.o
                                                  build/py/objgenerator.o
mp_raise_TypeError                                build/py/runtime.o
                                                  build/py/bc.o
                                                  build/py/modbuiltins.o
                                                  build/py/builtinevex.o
                                                  build/py/objtype.o
                                                  build/py/objstr.o
                                                  build/py/objgenerator.o
                                                  build/py/objdict.o
                                                  build/py/obj.o
                                                  build/py/argcheck.o
mp_raise_ValueError                               build/py/runtime.o
                                                  build/py/modbuiltins.o
                                                  build/py/builtinimport.o
                                                  build/py/binary.o
                                                  build/py/sequence.o
                                                  build/py/objstr.o
                                                  build/py/objrange.o
                                                  build/py/objint.o
                                                  build/py/objgenerator.o
                                                  build/py/objdict.o
                                                  build/py/obj.o
                                                  build/py/parsenum.o
mp_raise_msg                                      build/py/runtime.o
                                                  build/shared/runtime/pyexec.o
                                                  build/py/builtinimport.o
                                                  build/py/stream.o
                                                  build/py/objstr.o
                                                  build/py/objlist.o
                                                  build/py/objint.o
                                                  build/py/objgenerator.o
                                                  build/py/objdict.o
                                                  build/py/obj.o
                                                  build/py/emitbc.o
                                                  build/py/vstr.o
                                                  build/py/qstr.o
mp_raise_msg_varg                                 build/py/runtime.o
                                                  build/py/bc.o
mp_raise_type_arg                                 build/py/runtime.o
                                                  build/py/objstr.o
                                                  build/py/objdict.o
mp_reader_new_mem                                 build/py/reader.o
                                                  build/py/lexer.o
mp_repl_autocomplete                              build/py/repl.o
                                                  build/shared/readline/readline.o
mp_repl_continue_with_input                       build/py/repl.o
                                                  build/shared/runtime/pyexec.o
mp_resume                                         build/py/runtime.o
                                                  build/py/vm.o
mp_sched_exception                                build/py/scheduler.o
mp_seq_cmp_bytes                                  build/py/sequence.o
                                                  build/py/objstr.o
mp_seq_cmp_objs                                   build/py/sequence.o
                                                  build/py/objtuple.o
                                                  build/py/objlist.o
mp_seq_count_obj                                  build/py/sequence.o
                                                  build/py/objtuple.o
                                                  build/py/objlist.o
mp_seq_extract_slice                              build/py/sequence.o
mp_seq_index_obj                                  build/py/sequence.o
                                                  build/py/objtuple.o
                                                  build/py/objlist.o
mp_seq_multiply                                   build/py/sequence.o
                                                  build/py/objtuple.o
                                                  build/py/objstr.o
                                                  build/py/objlist.o
mp_setup_code_state                               build/py/bc.o
                                                  build/py/objgenerator.o
                                                  build/py/objfun.o
mp_small_int_floor_divide                         build/py/smallint.o
                                                  build/py/runtime.o
mp_small_int_modulo                               build/py/smallint.o
                                                  build/py/runtime.o
mp_small_int_mul_overflow                         build/py/smallint.o
                                                  build/py/runtime.o
                                                  build/py/parsenum.o
mp_stack_ctrl_init                                build/py/stackctrl.o
mp_stack_set_top                                  build/py/stackctrl.o
mp_stack_usage                                    build/py/stackctrl.o
mp_state_ctx                                      build/py/mpstate.o
                                                  build/shared/runtime/pyexec.o
                                                  build/shared/readline/readline.o
                                                  build/py/repl.o
                                                  build/py/vm.o
                                                  build/py/modmicropython.o
                                                  build/py/modbuiltins.o
                                                  build/py/builtinevex.o
                                                  build/py/builtinimport.o
                                                  build/py/objmodule.o
                                                  build/py/objgenerator.o
                                                  build/py/objfun.o
                                                  build/py/objexcept.o
                                                  build/py/stackctrl.o
                                                  build/py/scheduler.o
                                                  build/py/runtime.o
                                                  build/py/compile.o
                                                  build/py/lexer.o
                                                  build/py/qstr.o
                                                  build/py/gc.o
                                                  build/py/nlrthumb.o
                                                  build/py/nlr.o
mp_store_attr                                     build/py/runtime.o
                                                  build/py/vm.o
                                                  build/py/modbuiltins.o
                                                  build/py/builtinimport.o
mp_store_global                                   build/py/runtime.o
                                                  build/py/vm.o
mp_store_name                                     build/py/runtime.o
                                                  build/py/vm.o
mp_str_print_quoted                               build/py/objstr.o
mp_stream_close                                   build/py/stream.o
mp_stream_close_obj                               build/py/stream.o
mp_stream_flush_obj                               build/py/stream.o
mp_stream_ioctl_obj                               build/py/stream.o
mp_stream_read1_obj                               build/py/stream.o
mp_stream_read_obj                                build/py/stream.o
mp_stream_readinto_obj                            build/py/stream.o
mp_stream_rw                                      build/py/stream.o
mp_stream_seek_obj                                build/py/stream.o
mp_stream_tell_obj                                build/py/stream.o
mp_stream_unbuffered_iter                         build/py/stream.o
                                                  build/py/runtime.o
mp_stream_unbuffered_readline_obj                 build/py/stream.o
mp_stream_unbuffered_readlines_obj                build/py/stream.o
mp_stream_write                                   build/py/stream.o
mp_stream_write1_obj                              build/py/stream.o
mp_stream_write_adaptor                           build/py/stream.o
mp_stream_write_obj                               build/py/stream.o
mp_type_ArithmeticError                           build/py/objexcept.o
                                                  build/py/modbuiltins.o
mp_type_AssertionError                            build/py/objexcept.o
                                                  build/py/modbuiltins.o
mp_type_AttributeError                            build/py/objexcept.o
                                                  build/py/modbuiltins.o
                                                  build/py/runtime.o
mp_type_BaseException                             build/py/objexcept.o
                                                  build/py/modbuiltins.o
mp_type_EOFError                                  build/py/objexcept.o
                                                  build/py/modbuiltins.o
mp_type_Exception                                 build/py/objexcept.o
                                                  build/py/modbuiltins.o
mp_type_GeneratorExit                             build/py/objexcept.o
                                                  build/py/vm.o
                                                  build/py/modbuiltins.o
                                                  build/py/objgenerator.o
                                                  build/py/runtime.o
mp_type_ImportError                               build/py/objexcept.o
                                                  build/py/modbuiltins.o
                                                  build/py/builtinimport.o
                                                  build/py/runtime.o
mp_type_IndentationError                          build/py/objexcept.o
                                                  build/py/modbuiltins.o
                                                  build/py/parse.o
mp_type_IndexError                                build/py/objexcept.o
                                                  build/py/modbuiltins.o
                                                  build/py/objstr.o
                                                  build/py/objlist.o
                                                  build/py/objgetitemiter.o
                                                  build/py/obj.o
mp_type_KeyError                                  build/py/objexcept.o
                                                  build/py/modbuiltins.o
                                                  build/py/objstr.o
                                                  build/py/objdict.o
mp_type_KeyboardInterrupt                         build/py/objexcept.o
                                                  build/shared/runtime/pyexec.o
                                                  build/py/modbuiltins.o
mp_type_LookupError                               build/py/objexcept.o
                                                  build/py/modbuiltins.o
mp_type_MemoryError                               build/py/objexcept.o
                                                  build/py/modbuiltins.o
                                                  build/py/runtime.o
mp_type_NameError                                 build/py/objexcept.o
                                                  build/py/vm.o
                                                  build/py/modbuiltins.o
                                                  build/py/runtime.o
mp_type_NoneType                                  build/py/objnone.o
                                                  build/py/obj.o
mp_type_NotImplementedError                       build/py/objexcept.o
                                                  build/py/vm.o
                                                  build/py/modbuiltins.o
                                                  build/py/runtime.o
mp_type_OSError                                   build/py/objexcept.o
                                                  build/py/modbuiltins.o
                                                  build/py/stream.o
                                                  build/py/runtime.o
mp_type_OverflowError                             build/py/objexcept.o
                                                  build/py/modbuiltins.o
                                                  build/py/objint.o
mp_type_RuntimeError                              build/py/objexcept.o
                                                  build/py/vm.o
                                                  build/py/modbuiltins.o
                                                  build/py/objgenerator.o
                                                  build/py/runtime.o
                                                  build/py/emitbc.o
                                                  build/py/vstr.o
                                                  build/py/qstr.o
mp_type_StopIteration                             build/py/objexcept.o
                                                  build/py/vm.o
                                                  build/py/modbuiltins.o
                                                  build/py/objgetitemiter.o
                                                  build/py/objgenerator.o
                                                  build/py/runtime.o
mp_type_SyntaxError                               build/py/objexcept.o
                                                  build/py/modbuiltins.o
                                                  build/py/parsenum.o
                                                  build/py/compile.o
                                                  build/py/parse.o
mp_type_SystemExit                                build/py/objexcept.o
                                                  build/shared/runtime/pyexec.o
                                                  build/py/modbuiltins.o
mp_type_TypeError                                 build/py/objexcept.o
                                                  build/py/bc.o
                                                  build/py/modbuiltins.o
                                                  build/py/runtime.o
mp_type_ValueError                                build/py/objexcept.o
                                                  build/py/modbuiltins.o
                                                  build/py/runtime.o
                                                  build/py/parsenum.o
mp_type_ZeroDivisionError                         build/py/objexcept.o
                                                  build/py/modbuiltins.o
                                                  build/py/runtime.o
mp_type_bool                                      build/py/objbool.o
                                                  build/py/modbuiltins.o
                                                  build/py/obj.o
mp_type_bytes                                     build/py/objstr.o
                                                  build/build/_frozen_mpy.o
                                                  build/py/modbuiltins.o
                                                  build/py/obj.o
                                                  build/py/gc.o
mp_type_classmethod                               build/py/objtype.o
                                                  build/py/modbuiltins.o
                                                  build/py/objint.o
                                                  build/py/runtime.o
mp_type_closure                                   build/py/objclosure.o
mp_type_dict                                      build/py/objdict.o
                                                  build/py/modmicropython.o
                                                  build/py/modbuiltins.o
                                                  build/py/builtinevex.o
                                                  build/py/objtuple.o
                                                  build/py/objstr.o
                                                  build/py/objlist.o
                                                  build/py/objint.o
                                                  build/py/objgenerator.o
                                                  build/py/runtime.o
                                                  build/py/gc.o
mp_type_fun_bc                                    build/py/objfun.o
                                                  build/py/gc.o
mp_type_fun_builtin_0                             build/py/objfun.o
                                                  build/py/modmicropython.o
                                                  build/py/modbuiltins.o
mp_type_fun_builtin_1                             build/py/objfun.o
                                                  build/py/modbuiltins.o
                                                  build/py/stream.o
                                                  build/py/objstr.o
                                                  build/py/objlist.o
                                                  build/py/objgenerator.o
                                                  build/py/objdict.o
                                                  build/py/obj.o
mp_type_fun_builtin_2                             build/py/objfun.o
                                                  build/py/modbuiltins.o
                                                  build/py/stream.o
                                                  build/py/opmethods.o
                                                  build/py/objtype.o
                                                  build/py/objtuple.o
                                                  build/py/objstr.o
                                                  build/py/objlist.o
                                                  build/py/objgenerator.o
mp_type_fun_builtin_3                             build/py/objfun.o
                                                  build/py/modbuiltins.o
                                                  build/py/opmethods.o
                                                  build/py/objlist.o
mp_type_fun_builtin_var                           build/py/objfun.o
                                                  build/py/modmicropython.o
                                                  build/py/modbuiltins.o
                                                  build/py/builtinevex.o
                                                  build/py/builtinimport.o
                                                  build/py/stream.o
                                                  build/py/objtype.o
                                                  build/py/objtuple.o
                                                  build/py/objstr.o
                                                  build/py/objlist.o
                                                  build/py/objint.o
                                                  build/py/objgenerator.o
                                                  build/py/objdict.o
mp_type_gen_instance                              build/py/objgenerator.o
                                                  build/py/runtime.o
mp_type_gen_wrap                                  build/py/objgenerator.o
                                                  build/py/emitglue.o
mp_type_int                                       build/py/objint.o
                                                  build/py/modbuiltins.o
                                                  build/py/objtype.o
                                                  build/py/objstr.o
                                                  build/py/obj.o
                                                  build/py/parse.o
                                                  build/py/mpprint.o
mp_type_list                                      build/py/objlist.o
                                                  build/py/modbuiltins.o
                                                  build/py/objstr.o
                                                  build/py/objint.o
                                                  build/py/obj.o
                                                  build/py/runtime.o
                                                  build/py/gc.o
mp_type_map                                       build/py/objmap.o
                                                  build/py/modbuiltins.o
mp_type_module                                    build/py/objmodule.o
                                                  build/py/modmicropython.o
                                                  build/py/modbuiltins.o
                                                  build/py/runtime.o
                                                  build/py/gc.o
mp_type_object                                    build/py/objobject.o
                                                  build/py/modbuiltins.o
                                                  build/py/objtype.o
mp_type_polymorph_iter                            build/py/objpolyiter.o
                                                  build/py/objtuple.o
                                                  build/py/objstr.o
                                                  build/py/objlist.o
mp_type_range                                     build/py/objrange.o
                                                  build/py/modbuiltins.o
mp_type_singleton                                 build/py/objsingleton.o
mp_type_staticmethod                              build/py/objtype.o
                                                  build/py/modbuiltins.o
                                                  build/py/runtime.o
mp_type_str                                       build/py/objstr.o
                                                  build/build/_frozen_mpy.o
                                                  build/py/modbuiltins.o
                                                  build/py/objexcept.o
                                                  build/py/obj.o
                                                  build/py/map.o
                                                  build/py/parse.o
                                                  build/py/gc.o
mp_type_super                                     build/py/objtype.o
                                                  build/py/modbuiltins.o
mp_type_tuple                                     build/py/objtuple.o
                                                  build/py/modbuiltins.o
                                                  build/py/objtype.o
                                                  build/py/objstr.o
                                                  build/py/objint.o
                                                  build/py/objexcept.o
                                                  build/py/obj.o
                                                  build/py/runtime.o
                                                  build/py/emitcommon.o
                                                  build/py/gc.o
mp_type_type                                      build/py/objtype.o
                                                  build/py/modbuiltins.o
                                                  build/py/objzip.o
                                                  build/py/objtuple.o
                                                  build/py/objstr.o
                                                  build/py/objsingleton.o
                                                  build/py/objrange.o
                                                  build/py/objnone.o
                                                  build/py/objpolyiter.o
                                                  build/py/objobject.o
                                                  build/py/objmodule.o
                                                  build/py/objmap.o
                                                  build/py/objlist.o
                                                  build/py/objint.o
                                                  build/py/objgetitemiter.o
                                                  build/py/objgenerator.o
                                                  build/py/objfun.o
                                                  build/py/objexcept.o
                                                  build/py/objdict.o
                                                  build/py/objclosure.o
                                                  build/py/objcell.o
                                                  build/py/objboundmeth.o
                                                  build/py/objbool.o
mp_type_zip                                       build/py/objzip.o
                                                  build/py/modbuiltins.o
mp_unary_op                                       build/py/runtime.o
                                                  build/py/vm.o
                                                  build/py/modbuiltins.o
                                                  build/py/objtype.o
                                                  build/py/objtuple.o
                                                  build/py/objint.o
                                                  build/py/objbool.o
                                                  build/py/obj.o
                                                  build/py/map.o
mp_unary_op_method_name                           build/py/objtype.o
mp_unpack_ex                                      build/py/runtime.o
                                                  build/py/vm.o
mp_unpack_sequence                                build/py/runtime.o
                                                  build/py/vm.o
mp_vprintf                                        build/py/mpprint.o
                                                  build/shared/libc/printf.o
                                                  build/py/objexcept.o
                                                  build/py/vstr.o
nlr_jump                                          build/py/nlrthumb.o
                                                  build/py/builtinimport.o
                                                  build/py/objgetitemiter.o
                                                  build/py/objgenerator.o
                                                  build/py/objfun.o
                                                  build/py/scheduler.o
                                                  build/py/runtime.o
                                                  build/py/parsenum.o
                                                  build/py/compile.o
                                                  build/py/parse.o
nlr_jump_fail                                     build/main.o
                                                  build/py/nlrthumb.o
nlr_pop                                           build/py/nlr.o
                                                  build/shared/runtime/pyexec.o
                                                  build/main.o
                                                  build/py/vm.o
                                                  build/py/builtinimport.o
                                                  build/py/objgetitemiter.o
                                                  build/py/runtime_utils.o
                                                  build/py/runtime.o
nlr_push                                          build/py/nlrthumb.o
                                                  build/shared/runtime/pyexec.o
                                                  build/main.o
                                                  build/py/vm.o
                                                  build/py/builtinimport.o
                                                  build/py/objgetitemiter.o
                                                  build/py/runtime_utils.o
                                                  build/py/runtime.o
nlr_push_tail                                     build/py/nlr.o
                                                  build/py/nlrthumb.o
printf                                            build/shared/libc/printf.o
                                                  build/shared/runtime/pyexec.o
                                                  build/STdriver.o
                                                  build/main.o
putchar                                           build/shared/libc/printf.o
puts                                              build/shared/libc/printf.o
pyexec_file                                       build/shared/runtime/pyexec.o
pyexec_file_if_exists                             build/shared/runtime/pyexec.o
pyexec_friendly_repl                              build/shared/runtime/pyexec.o
                                                  build/main.o
pyexec_frozen_module                              build/shared/runtime/pyexec.o
pyexec_mode_kind                                  build/shared/runtime/pyexec.o
pyexec_raw_repl                                   build/shared/runtime/pyexec.o
pyexec_system_exit                                build/shared/runtime/pyexec.o
qstr_compute_hash                                 build/py/qstr.o
                                                  build/py/objstr.o
                                                  build/py/objexcept.o
                                                  build/py/runtime.o
qstr_data                                         build/py/qstr.o
                                                  build/py/repl.o
                                                  build/py/objstr.o
                                                  build/py/runtime.o
                                                  build/py/compile.o
                                                  build/py/mpprint.o
qstr_find_strn                                    build/py/qstr.o
                                                  build/py/repl.o
                                                  build/py/objstr.o
                                                  build/py/parse.o
qstr_from_str                                     build/py/qstr.o
qstr_from_strn                                    build/py/qstr.o
                                                  build/py/builtinimport.o
                                                  build/py/objstr.o
                                                  build/py/runtime.o
                                                  build/py/compile.o
                                                  build/py/parse.o
qstr_hash                                         build/py/qstr.o
                                                  build/py/objstr.o
                                                  build/py/map.o
                                                  build/py/runtime.o
qstr_init                                         build/py/qstr.o
                                                  build/py/runtime.o
qstr_len                                          build/py/qstr.o
                                                  build/py/objstr.o
                                                  build/py/obj.o
                                                  build/py/runtime.o
                                                  build/py/compile.o
qstr_pool_info                                    build/py/qstr.o
qstr_str                                          build/py/qstr.o
                                                  build/py/builtinimport.o
                                                  build/py/objtype.o
                                                  build/py/objexcept.o
                                                  build/py/obj.o
                                                  build/py/runtime.o
readline                                          build/shared/readline/readline.o
                                                  build/shared/runtime/pyexec.o
readline_init                                     build/shared/readline/readline.o
readline_init0                                    build/shared/readline/readline.o
readline_note_newline                             build/shared/readline/readline.o
readline_process_char                             build/shared/readline/readline.o
readline_push_history                             build/shared/readline/readline.o
ringbuf_get16                                     build/py/ringbuf.o
ringbuf_peek16                                    build/py/ringbuf.o
ringbuf_put16                                     build/py/ringbuf.o
scope_check_to_close_over                         build/py/scope.o
                                                  build/py/compile.o
scope_find                                        build/py/scope.o
                                                  build/py/emitcommon.o
                                                  build/py/compile.o
scope_find_global                                 build/py/scope.o
                                                  build/py/compile.o
scope_find_or_add_id                              build/py/scope.o
                                                  build/py/emitcommon.o
                                                  build/py/compile.o
scope_free                                        build/py/scope.o
                                                  build/py/compile.o
scope_new                                         build/py/scope.o
                                                  build/py/compile.o
snprintf                                          build/shared/libc/printf.o
                                                  build/shared/readline/readline.o
stm32_init                                        build/main.o
stpcpy                                            build/shared/libc/string0.o
str_endswith_obj                                  build/py/objstr.o
str_find_obj                                      build/py/objstr.o
str_format_obj                                    build/py/objstr.o
str_index_obj                                     build/py/objstr.o
str_index_to_ptr                                  build/py/objstr.o
str_isalpha_obj                                   build/py/objstr.o
str_isdigit_obj                                   build/py/objstr.o
str_islower_obj                                   build/py/objstr.o
str_isspace_obj                                   build/py/objstr.o
str_isupper_obj                                   build/py/objstr.o
str_join_obj                                      build/py/objstr.o
str_lower_obj                                     build/py/objstr.o
str_lstrip_obj                                    build/py/objstr.o
str_replace_obj                                   build/py/objstr.o
str_rfind_obj                                     build/py/objstr.o
str_rindex_obj                                    build/py/objstr.o
str_rsplit_obj                                    build/py/objstr.o
str_rstrip_obj                                    build/py/objstr.o
str_split_obj                                     build/py/objstr.o
str_startswith_obj                                build/py/objstr.o
str_strip_obj                                     build/py/objstr.o
str_upper_obj                                     build/py/objstr.o
strcat                                            build/shared/libc/string0.o
strchr                                            build/shared/libc/string0.o
                                                  build/py/objstr.o
strcmp                                            build/shared/libc/string0.o
                                                  build/shared/readline/readline.o
                                                  build/py/lexer.o
strcpy                                            build/shared/libc/string0.o
strcspn                                           build/shared/libc/string0.o
strlen                                            build/shared/libc/string0.o
                                                  build/shared/runtime/stdout_helpers.o
                                                  build/shared/readline/readline.o
                                                  build/shared/libc/printf.o
                                                  build/main.o
                                                  build/py/frozenmod.o
                                                  build/py/binary.o
                                                  build/py/objint.o
                                                  build/py/objexcept.o
                                                  build/py/mpprint.o
                                                  build/py/vstr.o
                                                  build/py/qstr.o
strncmp                                           build/shared/libc/string0.o
                                                  build/py/repl.o
                                                  build/py/builtinimport.o
strncpy                                           build/shared/libc/string0.o
strspn                                            build/shared/libc/string0.o
strstr                                            build/shared/libc/string0.o
uc8Buffer                                         build/STdriver.o
ui16BufferCount                                   build/STdriver.o
unichar_isalnum                                   build/py/unicode.o
unichar_isalpha                                   build/py/unicode.o
                                                  build/py/repl.o
                                                  build/py/objstr.o
                                                  build/py/lexer.o
unichar_isdigit                                   build/py/unicode.o
                                                  build/py/repl.o
                                                  build/py/objstr.o
                                                  build/py/lexer.o
unichar_isident                                   build/py/unicode.o
                                                  build/py/repl.o
unichar_islower                                   build/py/unicode.o
                                                  build/py/objstr.o
unichar_isspace                                   build/py/unicode.o
                                                  build/shared/readline/readline.o
                                                  build/py/objstr.o
                                                  build/py/parsenum.o
                                                  build/py/lexer.o
unichar_isupper                                   build/py/unicode.o
                                                  build/py/objstr.o
unichar_isxdigit                                  build/py/unicode.o
                                                  build/py/lexer.o
unichar_tolower                                   build/py/unicode.o
                                                  build/py/objstr.o
unichar_toupper                                   build/py/unicode.o
                                                  build/py/objstr.o
unichar_xdigit_value                              build/py/unicode.o
                                                  build/py/lexer.o
vprintf                                           build/shared/libc/printf.o
vsnprintf                                         build/shared/libc/printf.o
vstr_add_byte                                     build/py/vstr.o
                                                  build/shared/runtime/pyexec.o
                                                  build/py/objstr.o
                                                  build/py/lexer.o
vstr_add_char                                     build/py/vstr.o
                                                  build/py/builtinimport.o
                                                  build/py/lexer.o
vstr_add_len                                      build/py/vstr.o
                                                  build/py/stream.o
vstr_add_str                                      build/py/vstr.o
                                                  build/shared/readline/readline.o
                                                  build/py/builtinimport.o
vstr_add_strn                                     build/py/vstr.o
vstr_clear                                        build/py/vstr.o
                                                  build/shared/runtime/pyexec.o
                                                  build/py/stream.o
                                                  build/py/objstr.o
                                                  build/py/lexer.o
vstr_cut_head_bytes                               build/py/vstr.o
vstr_cut_out_bytes                                build/py/vstr.o
                                                  build/shared/readline/readline.o
vstr_cut_tail_bytes                               build/py/vstr.o
                                                  build/shared/readline/readline.o
                                                  build/py/stream.o
                                                  build/py/lexer.o
vstr_extend                                       build/py/vstr.o
                                                  build/py/stream.o
vstr_free                                         build/py/vstr.o
vstr_hint_size                                    build/py/vstr.o
vstr_init                                         build/py/vstr.o
                                                  build/shared/runtime/pyexec.o
                                                  build/py/stream.o
                                                  build/py/objstr.o
                                                  build/py/runtime.o
                                                  build/py/lexer.o
vstr_init_fixed_buf                               build/py/vstr.o
                                                  build/py/builtinimport.o
vstr_init_len                                     build/py/vstr.o
                                                  build/py/stream.o
                                                  build/py/objstr.o
                                                  build/py/objint.o
vstr_init_print                                   build/py/vstr.o
                                                  build/py/modbuiltins.o
                                                  build/py/objstr.o
vstr_ins_byte                                     build/py/vstr.o
                                                  build/shared/readline/readline.o
vstr_ins_char                                     build/py/vstr.o
                                                  build/shared/readline/readline.o
vstr_new                                          build/py/vstr.o
vstr_null_terminated_str                          build/py/vstr.o
                                                  build/shared/runtime/pyexec.o
                                                  build/shared/readline/readline.o
                                                  build/py/builtinimport.o
                                                  build/py/objstr.o
                                                  build/py/lexer.o
vstr_printf                                       build/py/vstr.o
                                                  build/py/runtime.o
vstr_vprintf                                      build/py/vstr.o
